(lp0
(S'cxx'
p1
S'/usr/bin/avr-g++'
p2
tp3
a(S'stty'
p4
S'/bin/stty'
p5
tp6
a(S'version.txt'
p7
S'/usr/share/arduino/lib/version.txt'
p8
tp9
a(S'used_libs'
p10
(lp11
S'/usr/share/arduino/hardware/arduino/cores/arduino'
p12
atp13
a(S'cc'
p14
S'/usr/bin/avr-gcc'
p15
tp16
a(S'arduino_libraries_dir'
p17
S'/usr/share/arduino/libraries'
p18
tp19
a(S'arduino_core_dir'
p20
g12
tp21
a(S'boards.txt'
p22
S'/usr/share/arduino/hardware/arduino/boards.txt'
p23
tp24
a(S'cxxflags'
p25
ccopy_reg
_reconstructor
p26
(cino.utils
SpaceList
p27
c__builtin__
list
p28
(lp29
S'-fno-exceptions'
p30
atp31
Rp32
tp33
a(S'arduino_variants_dir'
p34
S'/usr/share/arduino/hardware/arduino/variants'
p35
tp36
a(S'avrdude'
p37
S'/usr/share/arduino/hardware/tools/avrdude'
p38
tp39
a(S'avrdude.conf'
p40
S'/usr/share/arduino/hardware/tools/avrdude.conf'
p41
tp42
a(S'names'
p43
(dp44
S'cpp'
p45
S'%s.cpp'
p46
sS'obj'
p47
S'%s.o'
p48
sS'lib'
p49
S'lib%s.a'
p50
sS'deps'
p51
S'%s.d'
p52
stp53
a(S'cflags'
p54
g26
(g27
g28
(lp55
S'-mmcu=atmega328p'
p56
aS'-ffunction-sections'
p57
aS'-fdata-sections'
p58
aS'-g'
p59
aS'-Os'
p60
aS'-w'
p61
aS'-DF_CPU=16000000L'
p62
aS'-DARDUINO=100'
p63
aS'-I/usr/share/arduino/hardware/arduino/cores/arduino'
p64
aS'-I/usr/share/arduino/hardware/arduino/variants/standard'
p65
aS'-I/usr/share/arduino/hardware/arduino/cores/arduino'
p66
atp67
Rp68
tp69
a(S'elfflags'
p70
g26
(g27
g28
(lp71
g60
aS'-Wl,--gc-sections'
p72
ag56
atp73
Rp74
tp75
a(S'arduino_lib_version'
p76
g26
(cino.environment
Version
p77
c__builtin__
tuple
p78
(I1
I0
tp79
tp80
Rp81
tp82
a(S'objcopy'
p83
S'/usr/bin/avr-objcopy'
p84
tp85
a(S'ar'
p86
S'/usr/bin/avr-ar'
p87
tp88
a(S'board_models'
p89
cino.environment
BoardModels
p90
((lp91
(lp92
S'uno'
p93
a(dp94
S'build'
p95
(dp96
S'core'
p97
S'arduino'
p98
sS'mcu'
p99
S'atmega328p'
p100
sS'f_cpu'
p101
S'16000000L'
p102
sS'variant'
p103
S'standard'
p104
ssS'bootloader'
p105
(dp106
S'extended_fuses'
p107
S'0x05'
p108
sS'high_fuses'
p109
S'0xde'
p110
sS'low_fuses'
p111
S'0xff'
p112
sS'lock_bits'
p113
S'0x0F'
p114
sS'file'
p115
S'optiboot_atmega328.hex'
p116
sS'path'
p117
S'optiboot'
p118
sS'unlock_bits'
p119
S'0x3F'
p120
ssS'upload'
p121
(dp122
S'protocol'
p123
S'arduino'
p124
sS'maximum_size'
p125
S'32256'
p126
sS'speed'
p127
S'115200'
p128
ssS'name'
p129
S'Arduino Uno'
p130
saa(lp131
S'alamode'
p132
a(dp133
S'build'
p134
(dp135
S'core'
p136
S'arduino'
p137
sS'mcu'
p138
S'atmega328p'
p139
sS'f_cpu'
p140
S'16000000L'
p141
sS'variant'
p142
S'standard'
p143
ssS'bootloader'
p144
(dp145
S'extended_fuses'
p146
S'0x05'
p147
sS'high_fuses'
p148
S'0xde'
p149
sS'low_fuses'
p150
S'0xff'
p151
sS'lock_bits'
p152
S'0x0F'
p153
sS'file'
p154
S'optiboot_atmega328.hex'
p155
sS'path'
p156
S'optiboot'
p157
sS'unlock_bits'
p158
S'0x3F'
p159
ssS'upload'
p160
(dp161
S'protocol'
p162
S'alamode'
p163
sS'maximum_size'
p164
S'32256'
p165
sS'speed'
p166
S'115200'
p167
ssS'name'
p168
S'AlaMode'
p169
saa(lp170
S'atmega328'
p171
a(dp172
S'build'
p173
(dp174
S'core'
p175
S'arduino'
p176
sS'mcu'
p177
S'atmega328p'
p178
sS'f_cpu'
p179
S'16000000L'
p180
sS'variant'
p181
S'standard'
p182
ssS'bootloader'
p183
(dp184
S'extended_fuses'
p185
S'0x05'
p186
sS'high_fuses'
p187
S'0xDA'
p188
sS'low_fuses'
p189
S'0xFF'
p190
sS'lock_bits'
p191
S'0x0F'
p192
sS'file'
p193
S'ATmegaBOOT_168_atmega328.hex'
p194
sS'path'
p195
S'atmega'
p196
sS'unlock_bits'
p197
S'0x3F'
p198
ssS'upload'
p199
(dp200
S'protocol'
p201
S'arduino'
p202
sS'maximum_size'
p203
S'30720'
p204
sS'speed'
p205
S'57600'
p206
ssS'name'
p207
S'Arduino Duemilanove w/ ATmega328'
p208
saa(lp209
S'diecimila'
p210
a(dp211
S'build'
p212
(dp213
S'core'
p214
S'arduino'
p215
sS'mcu'
p216
S'atmega168'
p217
sS'f_cpu'
p218
S'16000000L'
p219
sS'variant'
p220
S'standard'
p221
ssS'bootloader'
p222
(dp223
S'extended_fuses'
p224
S'0x00'
p225
sS'high_fuses'
p226
S'0xdd'
p227
sS'low_fuses'
p228
S'0xff'
p229
sS'lock_bits'
p230
S'0x0F'
p231
sS'file'
p232
S'ATmegaBOOT_168_diecimila.hex'
p233
sS'path'
p234
S'atmega'
p235
sS'unlock_bits'
p236
S'0x3F'
p237
ssS'upload'
p238
(dp239
S'protocol'
p240
S'arduino'
p241
sS'maximum_size'
p242
S'14336'
p243
sS'speed'
p244
S'19200'
p245
ssS'name'
p246
S'Arduino Diecimila or Duemilanove w/ ATmega168'
p247
saa(lp248
S'nano328'
p249
a(dp250
S'build'
p251
(dp252
S'core'
p253
S'arduino'
p254
sS'mcu'
p255
S'atmega328p'
p256
sS'f_cpu'
p257
S'16000000L'
p258
sS'variant'
p259
S'eightanaloginputs'
p260
ssS'bootloader'
p261
(dp262
S'extended_fuses'
p263
S'0x05'
p264
sS'high_fuses'
p265
S'0xDA'
p266
sS'low_fuses'
p267
S'0xFF'
p268
sS'lock_bits'
p269
S'0x0F'
p270
sS'file'
p271
S'ATmegaBOOT_168_atmega328.hex'
p272
sS'path'
p273
S'atmega'
p274
sS'unlock_bits'
p275
S'0x3F'
p276
ssS'upload'
p277
(dp278
S'protocol'
p279
S'arduino'
p280
sS'maximum_size'
p281
S'30720'
p282
sS'speed'
p283
S'57600'
p284
ssS'name'
p285
S'Arduino Nano w/ ATmega328'
p286
saa(lp287
S'nano'
p288
a(dp289
S'build'
p290
(dp291
S'core'
p292
S'arduino'
p293
sS'mcu'
p294
S'atmega168'
p295
sS'f_cpu'
p296
S'16000000L'
p297
sS'variant'
p298
S'eightanaloginputs'
p299
ssS'bootloader'
p300
(dp301
S'extended_fuses'
p302
S'0x00'
p303
sS'high_fuses'
p304
S'0xdd'
p305
sS'low_fuses'
p306
S'0xff'
p307
sS'lock_bits'
p308
S'0x0F'
p309
sS'file'
p310
S'ATmegaBOOT_168_diecimila.hex'
p311
sS'path'
p312
S'atmega'
p313
sS'unlock_bits'
p314
S'0x3F'
p315
ssS'upload'
p316
(dp317
S'protocol'
p318
S'arduino'
p319
sS'maximum_size'
p320
S'14336'
p321
sS'speed'
p322
S'19200'
p323
ssS'name'
p324
S'Arduino Nano w/ ATmega168'
p325
saa(lp326
S'mega2560'
p327
a(dp328
S'build'
p329
(dp330
S'core'
p331
S'arduino'
p332
sS'mcu'
p333
S'atmega2560'
p334
sS'f_cpu'
p335
S'16000000L'
p336
sS'variant'
p337
S'mega'
p338
ssS'bootloader'
p339
(dp340
S'extended_fuses'
p341
S'0xFD'
p342
sS'high_fuses'
p343
S'0xD8'
p344
sS'low_fuses'
p345
S'0xFF'
p346
sS'lock_bits'
p347
S'0x0F'
p348
sS'file'
p349
S'stk500boot_v2_mega2560.hex'
p350
sS'path'
p351
S'stk500v2'
p352
sS'unlock_bits'
p353
S'0x3F'
p354
ssS'upload'
p355
(dp356
S'protocol'
p357
S'stk500v2'
p358
sS'maximum_size'
p359
S'258048'
p360
sS'speed'
p361
S'115200'
p362
ssS'name'
p363
S'Arduino Mega 2560 or Mega ADK'
p364
saa(lp365
S'mega'
p366
a(dp367
S'build'
p368
(dp369
S'core'
p370
S'arduino'
p371
sS'mcu'
p372
S'atmega1280'
p373
sS'f_cpu'
p374
S'16000000L'
p375
sS'variant'
p376
S'mega'
p377
ssS'bootloader'
p378
(dp379
S'extended_fuses'
p380
S'0xF5'
p381
sS'high_fuses'
p382
S'0xDA'
p383
sS'low_fuses'
p384
S'0xFF'
p385
sS'lock_bits'
p386
S'0x0F'
p387
sS'file'
p388
S'ATmegaBOOT_168_atmega1280.hex'
p389
sS'path'
p390
S'atmega'
p391
sS'unlock_bits'
p392
S'0x3F'
p393
ssS'upload'
p394
(dp395
S'protocol'
p396
S'arduino'
p397
sS'maximum_size'
p398
S'126976'
p399
sS'speed'
p400
S'57600'
p401
ssS'name'
p402
S'Arduino Mega (ATmega1280)'
p403
saa(lp404
S'mini328'
p405
a(dp406
S'build'
p407
(dp408
S'core'
p409
S'arduino'
p410
sS'mcu'
p411
S'atmega328p'
p412
sS'f_cpu'
p413
S'16000000L'
p414
sS'variant'
p415
S'eightanaloginputs'
p416
ssS'bootloader'
p417
(dp418
S'extended_fuses'
p419
S'0x05'
p420
sS'high_fuses'
p421
S'0xd8'
p422
sS'low_fuses'
p423
S'0xff'
p424
sS'lock_bits'
p425
S'0x0F'
p426
sS'file'
p427
S'optiboot_atmega328-Mini.hex'
p428
sS'path'
p429
S'optiboot'
p430
sS'unlock_bits'
p431
S'0x3F'
p432
ssS'upload'
p433
(dp434
S'protocol'
p435
S'stk500'
p436
sS'maximum_size'
p437
S'28672'
p438
sS'speed'
p439
S'115200'
p440
ssS'name'
p441
S'Arduino Mini w/ ATmega328'
p442
saa(lp443
S'mini'
p444
a(dp445
S'build'
p446
(dp447
S'core'
p448
S'arduino'
p449
sS'mcu'
p450
S'atmega168'
p451
sS'f_cpu'
p452
S'16000000L'
p453
sS'variant'
p454
S'eightanaloginputs'
p455
ssS'bootloader'
p456
(dp457
S'extended_fuses'
p458
S'0x00'
p459
sS'high_fuses'
p460
S'0xdd'
p461
sS'low_fuses'
p462
S'0xff'
p463
sS'lock_bits'
p464
S'0x0F'
p465
sS'file'
p466
S'ATmegaBOOT_168_ng.hex'
p467
sS'path'
p468
S'atmega'
p469
sS'unlock_bits'
p470
S'0x3F'
p471
ssS'upload'
p472
(dp473
S'protocol'
p474
S'arduino'
p475
sS'maximum_size'
p476
S'14336'
p477
sS'speed'
p478
S'19200'
p479
ssS'name'
p480
S'Arduino Mini w/ ATmega168'
p481
saa(lp482
S'ethernet'
p483
a(dp484
S'build'
p485
(dp486
S'variant'
p487
S'standard'
p488
sS'mcu'
p489
S'atmega328p'
p490
sS'f_cpu'
p491
S'16000000L'
p492
sS'core'
p493
S'arduino'
p494
ssS'bootloader'
p495
(dp496
S'extended_fuses'
p497
S'0x05'
p498
sS'high_fuses'
p499
S'0xde'
p500
sS'low_fuses'
p501
S'0xff'
p502
sS'lock_bits'
p503
S'0x0F'
p504
sS'file'
p505
S'optiboot_atmega328.hex'
p506
sS'path'
p507
S'optiboot'
p508
sS'unlock_bits'
p509
S'0x3F'
p510
ssS'upload'
p511
(dp512
S'protocol'
p513
S'arduino'
p514
sS'maximum_size'
p515
S'32256'
p516
sS'speed'
p517
S'115200'
p518
ssS'name'
p519
S'Arduino Ethernet'
p520
saa(lp521
S'fio'
p522
a(dp523
S'build'
p524
(dp525
S'core'
p526
S'arduino'
p527
sS'mcu'
p528
S'atmega328p'
p529
sS'f_cpu'
p530
S'8000000L'
p531
sS'variant'
p532
S'eightanaloginputs'
p533
ssS'bootloader'
p534
(dp535
S'extended_fuses'
p536
S'0x05'
p537
sS'high_fuses'
p538
S'0xDA'
p539
sS'low_fuses'
p540
S'0xFF'
p541
sS'lock_bits'
p542
S'0x0F'
p543
sS'file'
p544
S'ATmegaBOOT_168_atmega328_pro_8MHz.hex'
p545
sS'path'
p546
S'arduino:atmega'
p547
sS'unlock_bits'
p548
S'0x3F'
p549
ssS'upload'
p550
(dp551
S'protocol'
p552
S'arduino'
p553
sS'maximum_size'
p554
S'30720'
p555
sS'speed'
p556
S'57600'
p557
ssS'name'
p558
S'Arduino Fio'
p559
saa(lp560
S'bt328'
p561
a(dp562
S'build'
p563
(dp564
S'core'
p565
S'arduino'
p566
sS'mcu'
p567
S'atmega328p'
p568
sS'f_cpu'
p569
S'16000000L'
p570
sS'variant'
p571
S'eightanaloginputs'
p572
ssS'bootloader'
p573
(dp574
S'extended_fuses'
p575
S'0x05'
p576
sS'high_fuses'
p577
S'0xd8'
p578
sS'low_fuses'
p579
S'0xff'
p580
sS'lock_bits'
p581
S'0x0F'
p582
sS'file'
p583
S'ATmegaBOOT_168_atmega328_bt.hex'
p584
sS'path'
p585
S'bt'
p586
sS'unlock_bits'
p587
S'0x3F'
p588
ssS'upload'
p589
(dp590
S'protocol'
p591
S'arduino'
p592
sS'maximum_size'
p593
S'28672'
p594
sS'speed'
p595
S'19200'
p596
sS'disable_flushing'
p597
S'true'
p598
ssS'name'
p599
S'Arduino BT w/ ATmega328'
p600
saa(lp601
S'bt'
p602
a(dp603
S'build'
p604
(dp605
S'core'
p606
S'arduino'
p607
sS'mcu'
p608
S'atmega168'
p609
sS'f_cpu'
p610
S'16000000L'
p611
sS'variant'
p612
S'eightanaloginputs'
p613
ssS'bootloader'
p614
(dp615
S'extended_fuses'
p616
S'0x00'
p617
sS'high_fuses'
p618
S'0xdd'
p619
sS'low_fuses'
p620
S'0xff'
p621
sS'lock_bits'
p622
S'0x0F'
p623
sS'file'
p624
S'ATmegaBOOT_168.hex'
p625
sS'path'
p626
S'bt'
p627
sS'unlock_bits'
p628
S'0x3F'
p629
ssS'upload'
p630
(dp631
S'protocol'
p632
S'arduino'
p633
sS'maximum_size'
p634
S'14336'
p635
sS'speed'
p636
S'19200'
p637
sS'disable_flushing'
p638
S'true'
p639
ssS'name'
p640
S'Arduino BT w/ ATmega168'
p641
saa(lp642
S'lilypad328'
p643
a(dp644
S'build'
p645
(dp646
S'core'
p647
S'arduino'
p648
sS'mcu'
p649
S'atmega328p'
p650
sS'f_cpu'
p651
S'8000000L'
p652
sS'variant'
p653
S'standard'
p654
ssS'bootloader'
p655
(dp656
S'extended_fuses'
p657
S'0x05'
p658
sS'high_fuses'
p659
S'0xDA'
p660
sS'low_fuses'
p661
S'0xFF'
p662
sS'lock_bits'
p663
S'0x0F'
p664
sS'file'
p665
S'ATmegaBOOT_168_atmega328_pro_8MHz.hex'
p666
sS'path'
p667
S'atmega'
p668
sS'unlock_bits'
p669
S'0x3F'
p670
ssS'upload'
p671
(dp672
S'protocol'
p673
S'arduino'
p674
sS'maximum_size'
p675
S'30720'
p676
sS'speed'
p677
S'57600'
p678
ssS'name'
p679
S'LilyPad Arduino w/ ATmega328'
p680
saa(lp681
S'lilypad'
p682
a(dp683
S'build'
p684
(dp685
S'core'
p686
S'arduino'
p687
sS'mcu'
p688
S'atmega168'
p689
sS'f_cpu'
p690
S'8000000L'
p691
sS'variant'
p692
S'standard'
p693
ssS'bootloader'
p694
(dp695
S'extended_fuses'
p696
S'0x00'
p697
sS'high_fuses'
p698
S'0xdd'
p699
sS'low_fuses'
p700
S'0xe2'
p701
sS'lock_bits'
p702
S'0x0F'
p703
sS'file'
p704
S'LilyPadBOOT_168.hex'
p705
sS'path'
p706
S'lilypad'
p707
sS'unlock_bits'
p708
S'0x3F'
p709
ssS'upload'
p710
(dp711
S'protocol'
p712
S'arduino'
p713
sS'maximum_size'
p714
S'14336'
p715
sS'speed'
p716
S'19200'
p717
ssS'name'
p718
S'LilyPad Arduino w/ ATmega168'
p719
saa(lp720
S'pro5v328'
p721
a(dp722
S'build'
p723
(dp724
S'core'
p725
S'arduino'
p726
sS'mcu'
p727
S'atmega328p'
p728
sS'f_cpu'
p729
S'16000000L'
p730
sS'variant'
p731
S'standard'
p732
ssS'bootloader'
p733
(dp734
S'extended_fuses'
p735
S'0x05'
p736
sS'high_fuses'
p737
S'0xDA'
p738
sS'low_fuses'
p739
S'0xFF'
p740
sS'lock_bits'
p741
S'0x0F'
p742
sS'file'
p743
S'ATmegaBOOT_168_atmega328.hex'
p744
sS'path'
p745
S'atmega'
p746
sS'unlock_bits'
p747
S'0x3F'
p748
ssS'upload'
p749
(dp750
S'protocol'
p751
S'arduino'
p752
sS'maximum_size'
p753
S'30720'
p754
sS'speed'
p755
S'57600'
p756
ssS'name'
p757
S'Arduino Pro or Pro Mini (5V, 16 MHz) w/ ATmega328'
p758
saa(lp759
S'pro5v'
p760
a(dp761
S'build'
p762
(dp763
S'core'
p764
S'arduino'
p765
sS'mcu'
p766
S'atmega168'
p767
sS'f_cpu'
p768
S'16000000L'
p769
sS'variant'
p770
S'standard'
p771
ssS'bootloader'
p772
(dp773
S'extended_fuses'
p774
S'0x00'
p775
sS'high_fuses'
p776
S'0xdd'
p777
sS'low_fuses'
p778
S'0xff'
p779
sS'lock_bits'
p780
S'0x0F'
p781
sS'file'
p782
S'ATmegaBOOT_168_diecimila.hex'
p783
sS'path'
p784
S'atmega'
p785
sS'unlock_bits'
p786
S'0x3F'
p787
ssS'upload'
p788
(dp789
S'protocol'
p790
S'arduino'
p791
sS'maximum_size'
p792
S'14336'
p793
sS'speed'
p794
S'19200'
p795
ssS'name'
p796
S'Arduino Pro or Pro Mini (5V, 16 MHz) w/ ATmega168'
p797
saa(lp798
S'pro328'
p799
a(dp800
S'build'
p801
(dp802
S'core'
p803
S'arduino'
p804
sS'mcu'
p805
S'atmega328p'
p806
sS'f_cpu'
p807
S'8000000L'
p808
sS'variant'
p809
S'standard'
p810
ssS'bootloader'
p811
(dp812
S'extended_fuses'
p813
S'0x05'
p814
sS'high_fuses'
p815
S'0xDA'
p816
sS'low_fuses'
p817
S'0xFF'
p818
sS'lock_bits'
p819
S'0x0F'
p820
sS'file'
p821
S'ATmegaBOOT_168_atmega328_pro_8MHz.hex'
p822
sS'path'
p823
S'atmega'
p824
sS'unlock_bits'
p825
S'0x3F'
p826
ssS'upload'
p827
(dp828
S'protocol'
p829
S'arduino'
p830
sS'maximum_size'
p831
S'30720'
p832
sS'speed'
p833
S'57600'
p834
ssS'name'
p835
S'Arduino Pro or Pro Mini (3.3V, 8 MHz) w/ ATmega328'
p836
saa(lp837
S'pro'
p838
a(dp839
S'build'
p840
(dp841
S'core'
p842
S'arduino'
p843
sS'mcu'
p844
S'atmega168'
p845
sS'f_cpu'
p846
S'8000000L'
p847
sS'variant'
p848
S'standard'
p849
ssS'bootloader'
p850
(dp851
S'extended_fuses'
p852
S'0x00'
p853
sS'high_fuses'
p854
S'0xdd'
p855
sS'low_fuses'
p856
S'0xc6'
p857
sS'lock_bits'
p858
S'0x0F'
p859
sS'file'
p860
S'ATmegaBOOT_168_pro_8MHz.hex'
p861
sS'path'
p862
S'atmega'
p863
sS'unlock_bits'
p864
S'0x3F'
p865
ssS'upload'
p866
(dp867
S'protocol'
p868
S'arduino'
p869
sS'maximum_size'
p870
S'14336'
p871
sS'speed'
p872
S'19200'
p873
ssS'name'
p874
S'Arduino Pro or Pro Mini (3.3V, 8 MHz) w/ ATmega168'
p875
saa(lp876
S'atmega168'
p877
a(dp878
S'build'
p879
(dp880
S'core'
p881
S'arduino'
p882
sS'mcu'
p883
S'atmega168'
p884
sS'f_cpu'
p885
S'16000000L'
p886
sS'variant'
p887
S'standard'
p888
ssS'bootloader'
p889
(dp890
S'extended_fuses'
p891
S'0x00'
p892
sS'high_fuses'
p893
S'0xdd'
p894
sS'low_fuses'
p895
S'0xff'
p896
sS'lock_bits'
p897
S'0x0F'
p898
sS'file'
p899
S'ATmegaBOOT_168_ng.hex'
p900
sS'path'
p901
S'atmega'
p902
sS'unlock_bits'
p903
S'0x3F'
p904
ssS'upload'
p905
(dp906
S'protocol'
p907
S'arduino'
p908
sS'maximum_size'
p909
S'14336'
p910
sS'speed'
p911
S'19200'
p912
ssS'name'
p913
S'Arduino NG or older w/ ATmega168'
p914
saa(lp915
S'atmega8'
p916
a(dp917
S'build'
p918
(dp919
S'core'
p920
S'arduino'
p921
sS'mcu'
p922
S'atmega8'
p923
sS'f_cpu'
p924
S'16000000L'
p925
sS'variant'
p926
S'standard'
p927
ssS'bootloader'
p928
(dp929
S'high_fuses'
p930
S'0xca'
p931
sS'low_fuses'
p932
S'0xdf'
p933
sS'lock_bits'
p934
S'0x0F'
p935
sS'file'
p936
S'ATmegaBOOT.hex'
p937
sS'path'
p938
S'atmega8'
p939
sS'unlock_bits'
p940
S'0x3F'
p941
ssS'upload'
p942
(dp943
S'protocol'
p944
S'arduino'
p945
sS'maximum_size'
p946
S'7168'
p947
sS'speed'
p948
S'19200'
p949
ssS'name'
p950
S'Arduino NG or older w/ ATmega8'
p951
saatp952
Rp953
(dp954
S'default'
p955
S'uno'
p956
sbtp957
a(S'deps'
p958
g26
(g27
g28
(lp959
S'.build/alamode/src/dependencies.d'
p960
aS'.build/alamode/arduino/dependencies.d'
p961
atp962
Rp963
tp964
a(S'build_dir'
p965
S'.build/alamode'
p966
tp967
a.