(lp0
(S'objcopy'
p1
S'/usr/bin/avr-objcopy'
p2
tp3
a(S'stty'
p4
S'/bin/stty'
p5
tp6
a(S'version.txt'
p7
S'/usr/share/arduino/lib/version.txt'
p8
tp9
a(S'used_libs'
p10
(lp11
S'/usr/share/arduino/hardware/arduino/cores/arduino'
p12
atp13
a(S'cxx'
p14
S'/usr/bin/avr-g++'
p15
tp16
a(S'arduino_variants_dir'
p17
S'/usr/share/arduino/hardware/arduino/variants'
p18
tp19
a(S'arduino_libraries_dir'
p20
S'/usr/share/arduino/libraries'
p21
tp22
a(S'arduino_core_dir'
p23
g12
tp24
a(S'build_dir'
p25
S'.build/alamode'
p26
tp27
a(S'cxxflags'
p28
ccopy_reg
_reconstructor
p29
(cino.utils
SpaceList
p30
c__builtin__
list
p31
(lp32
S'-fno-exceptions'
p33
atp34
Rp35
tp36
a(S'cc'
p37
S'/usr/bin/avr-gcc'
p38
tp39
a(S'avrdude'
p40
S'/usr/share/arduino/hardware/tools/avrdude'
p41
tp42
a(S'avrdude.conf'
p43
S'/usr/share/arduino/hardware/tools/avrdude.conf'
p44
tp45
a(S'names'
p46
(dp47
S'cpp'
p48
S'%s.cpp'
p49
sS'obj'
p50
S'%s.o'
p51
sS'lib'
p52
S'lib%s.a'
p53
sS'deps'
p54
S'%s.d'
p55
stp56
a(S'cflags'
p57
g29
(g30
g31
(lp58
S'-mmcu=atmega328p'
p59
aS'-ffunction-sections'
p60
aS'-fdata-sections'
p61
aS'-g'
p62
aS'-Os'
p63
aS'-w'
p64
aS'-DF_CPU=16000000L'
p65
aS'-DARDUINO=100'
p66
aS'-I/usr/share/arduino/hardware/arduino/cores/arduino'
p67
aS'-I/usr/share/arduino/hardware/arduino/variants/standard'
p68
aS'-I/usr/share/arduino/hardware/arduino/cores/arduino'
p69
atp70
Rp71
tp72
a(S'elfflags'
p73
g29
(g30
g31
(lp74
g63
aS'-Wl,--gc-sections'
p75
ag59
atp76
Rp77
tp78
a(S'arduino_lib_version'
p79
g29
(cino.environment
Version
p80
c__builtin__
tuple
p81
(I1
I0
tp82
tp83
Rp84
tp85
a(S'boards.txt'
p86
S'/usr/share/arduino/hardware/arduino/boards.txt'
p87
tp88
a(S'ar'
p89
S'/usr/bin/avr-ar'
p90
tp91
a(S'board_models'
p92
cino.environment
BoardModels
p93
((lp94
(lp95
S'uno'
p96
a(dp97
S'build'
p98
(dp99
S'core'
p100
S'arduino'
p101
sS'mcu'
p102
S'atmega328p'
p103
sS'f_cpu'
p104
S'16000000L'
p105
sS'variant'
p106
S'standard'
p107
ssS'bootloader'
p108
(dp109
S'extended_fuses'
p110
S'0x05'
p111
sS'high_fuses'
p112
S'0xde'
p113
sS'low_fuses'
p114
S'0xff'
p115
sS'lock_bits'
p116
S'0x0F'
p117
sS'file'
p118
S'optiboot_atmega328.hex'
p119
sS'path'
p120
S'optiboot'
p121
sS'unlock_bits'
p122
S'0x3F'
p123
ssS'upload'
p124
(dp125
S'protocol'
p126
S'arduino'
p127
sS'maximum_size'
p128
S'32256'
p129
sS'speed'
p130
S'115200'
p131
ssS'name'
p132
S'Arduino Uno'
p133
saa(lp134
S'alamode'
p135
a(dp136
S'build'
p137
(dp138
S'core'
p139
S'arduino'
p140
sS'mcu'
p141
S'atmega328p'
p142
sS'f_cpu'
p143
S'16000000L'
p144
sS'variant'
p145
S'standard'
p146
ssS'bootloader'
p147
(dp148
S'extended_fuses'
p149
S'0x05'
p150
sS'high_fuses'
p151
S'0xde'
p152
sS'low_fuses'
p153
S'0xff'
p154
sS'lock_bits'
p155
S'0x0F'
p156
sS'file'
p157
S'optiboot_atmega328.hex'
p158
sS'path'
p159
S'optiboot'
p160
sS'unlock_bits'
p161
S'0x3F'
p162
ssS'upload'
p163
(dp164
S'protocol'
p165
S'alamode'
p166
sS'maximum_size'
p167
S'32256'
p168
sS'speed'
p169
S'115200'
p170
ssS'name'
p171
S'AlaMode'
p172
saa(lp173
S'atmega328'
p174
a(dp175
S'build'
p176
(dp177
S'core'
p178
S'arduino'
p179
sS'mcu'
p180
S'atmega328p'
p181
sS'f_cpu'
p182
S'16000000L'
p183
sS'variant'
p184
S'standard'
p185
ssS'bootloader'
p186
(dp187
S'extended_fuses'
p188
S'0x05'
p189
sS'high_fuses'
p190
S'0xDA'
p191
sS'low_fuses'
p192
S'0xFF'
p193
sS'lock_bits'
p194
S'0x0F'
p195
sS'file'
p196
S'ATmegaBOOT_168_atmega328.hex'
p197
sS'path'
p198
S'atmega'
p199
sS'unlock_bits'
p200
S'0x3F'
p201
ssS'upload'
p202
(dp203
S'protocol'
p204
S'arduino'
p205
sS'maximum_size'
p206
S'30720'
p207
sS'speed'
p208
S'57600'
p209
ssS'name'
p210
S'Arduino Duemilanove w/ ATmega328'
p211
saa(lp212
S'diecimila'
p213
a(dp214
S'build'
p215
(dp216
S'core'
p217
S'arduino'
p218
sS'mcu'
p219
S'atmega168'
p220
sS'f_cpu'
p221
S'16000000L'
p222
sS'variant'
p223
S'standard'
p224
ssS'bootloader'
p225
(dp226
S'extended_fuses'
p227
S'0x00'
p228
sS'high_fuses'
p229
S'0xdd'
p230
sS'low_fuses'
p231
S'0xff'
p232
sS'lock_bits'
p233
S'0x0F'
p234
sS'file'
p235
S'ATmegaBOOT_168_diecimila.hex'
p236
sS'path'
p237
S'atmega'
p238
sS'unlock_bits'
p239
S'0x3F'
p240
ssS'upload'
p241
(dp242
S'protocol'
p243
S'arduino'
p244
sS'maximum_size'
p245
S'14336'
p246
sS'speed'
p247
S'19200'
p248
ssS'name'
p249
S'Arduino Diecimila or Duemilanove w/ ATmega168'
p250
saa(lp251
S'nano328'
p252
a(dp253
S'build'
p254
(dp255
S'core'
p256
S'arduino'
p257
sS'mcu'
p258
S'atmega328p'
p259
sS'f_cpu'
p260
S'16000000L'
p261
sS'variant'
p262
S'eightanaloginputs'
p263
ssS'bootloader'
p264
(dp265
S'extended_fuses'
p266
S'0x05'
p267
sS'high_fuses'
p268
S'0xDA'
p269
sS'low_fuses'
p270
S'0xFF'
p271
sS'lock_bits'
p272
S'0x0F'
p273
sS'file'
p274
S'ATmegaBOOT_168_atmega328.hex'
p275
sS'path'
p276
S'atmega'
p277
sS'unlock_bits'
p278
S'0x3F'
p279
ssS'upload'
p280
(dp281
S'protocol'
p282
S'arduino'
p283
sS'maximum_size'
p284
S'30720'
p285
sS'speed'
p286
S'57600'
p287
ssS'name'
p288
S'Arduino Nano w/ ATmega328'
p289
saa(lp290
S'nano'
p291
a(dp292
S'build'
p293
(dp294
S'core'
p295
S'arduino'
p296
sS'mcu'
p297
S'atmega168'
p298
sS'f_cpu'
p299
S'16000000L'
p300
sS'variant'
p301
S'eightanaloginputs'
p302
ssS'bootloader'
p303
(dp304
S'extended_fuses'
p305
S'0x00'
p306
sS'high_fuses'
p307
S'0xdd'
p308
sS'low_fuses'
p309
S'0xff'
p310
sS'lock_bits'
p311
S'0x0F'
p312
sS'file'
p313
S'ATmegaBOOT_168_diecimila.hex'
p314
sS'path'
p315
S'atmega'
p316
sS'unlock_bits'
p317
S'0x3F'
p318
ssS'upload'
p319
(dp320
S'protocol'
p321
S'arduino'
p322
sS'maximum_size'
p323
S'14336'
p324
sS'speed'
p325
S'19200'
p326
ssS'name'
p327
S'Arduino Nano w/ ATmega168'
p328
saa(lp329
S'mega2560'
p330
a(dp331
S'build'
p332
(dp333
S'core'
p334
S'arduino'
p335
sS'mcu'
p336
S'atmega2560'
p337
sS'f_cpu'
p338
S'16000000L'
p339
sS'variant'
p340
S'mega'
p341
ssS'bootloader'
p342
(dp343
S'extended_fuses'
p344
S'0xFD'
p345
sS'high_fuses'
p346
S'0xD8'
p347
sS'low_fuses'
p348
S'0xFF'
p349
sS'lock_bits'
p350
S'0x0F'
p351
sS'file'
p352
S'stk500boot_v2_mega2560.hex'
p353
sS'path'
p354
S'stk500v2'
p355
sS'unlock_bits'
p356
S'0x3F'
p357
ssS'upload'
p358
(dp359
S'protocol'
p360
S'stk500v2'
p361
sS'maximum_size'
p362
S'258048'
p363
sS'speed'
p364
S'115200'
p365
ssS'name'
p366
S'Arduino Mega 2560 or Mega ADK'
p367
saa(lp368
S'mega'
p369
a(dp370
S'build'
p371
(dp372
S'core'
p373
S'arduino'
p374
sS'mcu'
p375
S'atmega1280'
p376
sS'f_cpu'
p377
S'16000000L'
p378
sS'variant'
p379
S'mega'
p380
ssS'bootloader'
p381
(dp382
S'extended_fuses'
p383
S'0xF5'
p384
sS'high_fuses'
p385
S'0xDA'
p386
sS'low_fuses'
p387
S'0xFF'
p388
sS'lock_bits'
p389
S'0x0F'
p390
sS'file'
p391
S'ATmegaBOOT_168_atmega1280.hex'
p392
sS'path'
p393
S'atmega'
p394
sS'unlock_bits'
p395
S'0x3F'
p396
ssS'upload'
p397
(dp398
S'protocol'
p399
S'arduino'
p400
sS'maximum_size'
p401
S'126976'
p402
sS'speed'
p403
S'57600'
p404
ssS'name'
p405
S'Arduino Mega (ATmega1280)'
p406
saa(lp407
S'mini328'
p408
a(dp409
S'build'
p410
(dp411
S'core'
p412
S'arduino'
p413
sS'mcu'
p414
S'atmega328p'
p415
sS'f_cpu'
p416
S'16000000L'
p417
sS'variant'
p418
S'eightanaloginputs'
p419
ssS'bootloader'
p420
(dp421
S'extended_fuses'
p422
S'0x05'
p423
sS'high_fuses'
p424
S'0xd8'
p425
sS'low_fuses'
p426
S'0xff'
p427
sS'lock_bits'
p428
S'0x0F'
p429
sS'file'
p430
S'optiboot_atmega328-Mini.hex'
p431
sS'path'
p432
S'optiboot'
p433
sS'unlock_bits'
p434
S'0x3F'
p435
ssS'upload'
p436
(dp437
S'protocol'
p438
S'stk500'
p439
sS'maximum_size'
p440
S'28672'
p441
sS'speed'
p442
S'115200'
p443
ssS'name'
p444
S'Arduino Mini w/ ATmega328'
p445
saa(lp446
S'mini'
p447
a(dp448
S'build'
p449
(dp450
S'core'
p451
S'arduino'
p452
sS'mcu'
p453
S'atmega168'
p454
sS'f_cpu'
p455
S'16000000L'
p456
sS'variant'
p457
S'eightanaloginputs'
p458
ssS'bootloader'
p459
(dp460
S'extended_fuses'
p461
S'0x00'
p462
sS'high_fuses'
p463
S'0xdd'
p464
sS'low_fuses'
p465
S'0xff'
p466
sS'lock_bits'
p467
S'0x0F'
p468
sS'file'
p469
S'ATmegaBOOT_168_ng.hex'
p470
sS'path'
p471
S'atmega'
p472
sS'unlock_bits'
p473
S'0x3F'
p474
ssS'upload'
p475
(dp476
S'protocol'
p477
S'arduino'
p478
sS'maximum_size'
p479
S'14336'
p480
sS'speed'
p481
S'19200'
p482
ssS'name'
p483
S'Arduino Mini w/ ATmega168'
p484
saa(lp485
S'ethernet'
p486
a(dp487
S'build'
p488
(dp489
S'variant'
p490
S'standard'
p491
sS'mcu'
p492
S'atmega328p'
p493
sS'f_cpu'
p494
S'16000000L'
p495
sS'core'
p496
S'arduino'
p497
ssS'bootloader'
p498
(dp499
S'extended_fuses'
p500
S'0x05'
p501
sS'high_fuses'
p502
S'0xde'
p503
sS'low_fuses'
p504
S'0xff'
p505
sS'lock_bits'
p506
S'0x0F'
p507
sS'file'
p508
S'optiboot_atmega328.hex'
p509
sS'path'
p510
S'optiboot'
p511
sS'unlock_bits'
p512
S'0x3F'
p513
ssS'upload'
p514
(dp515
S'protocol'
p516
S'arduino'
p517
sS'maximum_size'
p518
S'32256'
p519
sS'speed'
p520
S'115200'
p521
ssS'name'
p522
S'Arduino Ethernet'
p523
saa(lp524
S'fio'
p525
a(dp526
S'build'
p527
(dp528
S'core'
p529
S'arduino'
p530
sS'mcu'
p531
S'atmega328p'
p532
sS'f_cpu'
p533
S'8000000L'
p534
sS'variant'
p535
S'eightanaloginputs'
p536
ssS'bootloader'
p537
(dp538
S'extended_fuses'
p539
S'0x05'
p540
sS'high_fuses'
p541
S'0xDA'
p542
sS'low_fuses'
p543
S'0xFF'
p544
sS'lock_bits'
p545
S'0x0F'
p546
sS'file'
p547
S'ATmegaBOOT_168_atmega328_pro_8MHz.hex'
p548
sS'path'
p549
S'arduino:atmega'
p550
sS'unlock_bits'
p551
S'0x3F'
p552
ssS'upload'
p553
(dp554
S'protocol'
p555
S'arduino'
p556
sS'maximum_size'
p557
S'30720'
p558
sS'speed'
p559
S'57600'
p560
ssS'name'
p561
S'Arduino Fio'
p562
saa(lp563
S'bt328'
p564
a(dp565
S'build'
p566
(dp567
S'core'
p568
S'arduino'
p569
sS'mcu'
p570
S'atmega328p'
p571
sS'f_cpu'
p572
S'16000000L'
p573
sS'variant'
p574
S'eightanaloginputs'
p575
ssS'bootloader'
p576
(dp577
S'extended_fuses'
p578
S'0x05'
p579
sS'high_fuses'
p580
S'0xd8'
p581
sS'low_fuses'
p582
S'0xff'
p583
sS'lock_bits'
p584
S'0x0F'
p585
sS'file'
p586
S'ATmegaBOOT_168_atmega328_bt.hex'
p587
sS'path'
p588
S'bt'
p589
sS'unlock_bits'
p590
S'0x3F'
p591
ssS'upload'
p592
(dp593
S'protocol'
p594
S'arduino'
p595
sS'maximum_size'
p596
S'28672'
p597
sS'speed'
p598
S'19200'
p599
sS'disable_flushing'
p600
S'true'
p601
ssS'name'
p602
S'Arduino BT w/ ATmega328'
p603
saa(lp604
S'bt'
p605
a(dp606
S'build'
p607
(dp608
S'core'
p609
S'arduino'
p610
sS'mcu'
p611
S'atmega168'
p612
sS'f_cpu'
p613
S'16000000L'
p614
sS'variant'
p615
S'eightanaloginputs'
p616
ssS'bootloader'
p617
(dp618
S'extended_fuses'
p619
S'0x00'
p620
sS'high_fuses'
p621
S'0xdd'
p622
sS'low_fuses'
p623
S'0xff'
p624
sS'lock_bits'
p625
S'0x0F'
p626
sS'file'
p627
S'ATmegaBOOT_168.hex'
p628
sS'path'
p629
S'bt'
p630
sS'unlock_bits'
p631
S'0x3F'
p632
ssS'upload'
p633
(dp634
S'protocol'
p635
S'arduino'
p636
sS'maximum_size'
p637
S'14336'
p638
sS'speed'
p639
S'19200'
p640
sS'disable_flushing'
p641
S'true'
p642
ssS'name'
p643
S'Arduino BT w/ ATmega168'
p644
saa(lp645
S'lilypad328'
p646
a(dp647
S'build'
p648
(dp649
S'core'
p650
S'arduino'
p651
sS'mcu'
p652
S'atmega328p'
p653
sS'f_cpu'
p654
S'8000000L'
p655
sS'variant'
p656
S'standard'
p657
ssS'bootloader'
p658
(dp659
S'extended_fuses'
p660
S'0x05'
p661
sS'high_fuses'
p662
S'0xDA'
p663
sS'low_fuses'
p664
S'0xFF'
p665
sS'lock_bits'
p666
S'0x0F'
p667
sS'file'
p668
S'ATmegaBOOT_168_atmega328_pro_8MHz.hex'
p669
sS'path'
p670
S'atmega'
p671
sS'unlock_bits'
p672
S'0x3F'
p673
ssS'upload'
p674
(dp675
S'protocol'
p676
S'arduino'
p677
sS'maximum_size'
p678
S'30720'
p679
sS'speed'
p680
S'57600'
p681
ssS'name'
p682
S'LilyPad Arduino w/ ATmega328'
p683
saa(lp684
S'lilypad'
p685
a(dp686
S'build'
p687
(dp688
S'core'
p689
S'arduino'
p690
sS'mcu'
p691
S'atmega168'
p692
sS'f_cpu'
p693
S'8000000L'
p694
sS'variant'
p695
S'standard'
p696
ssS'bootloader'
p697
(dp698
S'extended_fuses'
p699
S'0x00'
p700
sS'high_fuses'
p701
S'0xdd'
p702
sS'low_fuses'
p703
S'0xe2'
p704
sS'lock_bits'
p705
S'0x0F'
p706
sS'file'
p707
S'LilyPadBOOT_168.hex'
p708
sS'path'
p709
S'lilypad'
p710
sS'unlock_bits'
p711
S'0x3F'
p712
ssS'upload'
p713
(dp714
S'protocol'
p715
S'arduino'
p716
sS'maximum_size'
p717
S'14336'
p718
sS'speed'
p719
S'19200'
p720
ssS'name'
p721
S'LilyPad Arduino w/ ATmega168'
p722
saa(lp723
S'pro5v328'
p724
a(dp725
S'build'
p726
(dp727
S'core'
p728
S'arduino'
p729
sS'mcu'
p730
S'atmega328p'
p731
sS'f_cpu'
p732
S'16000000L'
p733
sS'variant'
p734
S'standard'
p735
ssS'bootloader'
p736
(dp737
S'extended_fuses'
p738
S'0x05'
p739
sS'high_fuses'
p740
S'0xDA'
p741
sS'low_fuses'
p742
S'0xFF'
p743
sS'lock_bits'
p744
S'0x0F'
p745
sS'file'
p746
S'ATmegaBOOT_168_atmega328.hex'
p747
sS'path'
p748
S'atmega'
p749
sS'unlock_bits'
p750
S'0x3F'
p751
ssS'upload'
p752
(dp753
S'protocol'
p754
S'arduino'
p755
sS'maximum_size'
p756
S'30720'
p757
sS'speed'
p758
S'57600'
p759
ssS'name'
p760
S'Arduino Pro or Pro Mini (5V, 16 MHz) w/ ATmega328'
p761
saa(lp762
S'pro5v'
p763
a(dp764
S'build'
p765
(dp766
S'core'
p767
S'arduino'
p768
sS'mcu'
p769
S'atmega168'
p770
sS'f_cpu'
p771
S'16000000L'
p772
sS'variant'
p773
S'standard'
p774
ssS'bootloader'
p775
(dp776
S'extended_fuses'
p777
S'0x00'
p778
sS'high_fuses'
p779
S'0xdd'
p780
sS'low_fuses'
p781
S'0xff'
p782
sS'lock_bits'
p783
S'0x0F'
p784
sS'file'
p785
S'ATmegaBOOT_168_diecimila.hex'
p786
sS'path'
p787
S'atmega'
p788
sS'unlock_bits'
p789
S'0x3F'
p790
ssS'upload'
p791
(dp792
S'protocol'
p793
S'arduino'
p794
sS'maximum_size'
p795
S'14336'
p796
sS'speed'
p797
S'19200'
p798
ssS'name'
p799
S'Arduino Pro or Pro Mini (5V, 16 MHz) w/ ATmega168'
p800
saa(lp801
S'pro328'
p802
a(dp803
S'build'
p804
(dp805
S'core'
p806
S'arduino'
p807
sS'mcu'
p808
S'atmega328p'
p809
sS'f_cpu'
p810
S'8000000L'
p811
sS'variant'
p812
S'standard'
p813
ssS'bootloader'
p814
(dp815
S'extended_fuses'
p816
S'0x05'
p817
sS'high_fuses'
p818
S'0xDA'
p819
sS'low_fuses'
p820
S'0xFF'
p821
sS'lock_bits'
p822
S'0x0F'
p823
sS'file'
p824
S'ATmegaBOOT_168_atmega328_pro_8MHz.hex'
p825
sS'path'
p826
S'atmega'
p827
sS'unlock_bits'
p828
S'0x3F'
p829
ssS'upload'
p830
(dp831
S'protocol'
p832
S'arduino'
p833
sS'maximum_size'
p834
S'30720'
p835
sS'speed'
p836
S'57600'
p837
ssS'name'
p838
S'Arduino Pro or Pro Mini (3.3V, 8 MHz) w/ ATmega328'
p839
saa(lp840
S'pro'
p841
a(dp842
S'build'
p843
(dp844
S'core'
p845
S'arduino'
p846
sS'mcu'
p847
S'atmega168'
p848
sS'f_cpu'
p849
S'8000000L'
p850
sS'variant'
p851
S'standard'
p852
ssS'bootloader'
p853
(dp854
S'extended_fuses'
p855
S'0x00'
p856
sS'high_fuses'
p857
S'0xdd'
p858
sS'low_fuses'
p859
S'0xc6'
p860
sS'lock_bits'
p861
S'0x0F'
p862
sS'file'
p863
S'ATmegaBOOT_168_pro_8MHz.hex'
p864
sS'path'
p865
S'atmega'
p866
sS'unlock_bits'
p867
S'0x3F'
p868
ssS'upload'
p869
(dp870
S'protocol'
p871
S'arduino'
p872
sS'maximum_size'
p873
S'14336'
p874
sS'speed'
p875
S'19200'
p876
ssS'name'
p877
S'Arduino Pro or Pro Mini (3.3V, 8 MHz) w/ ATmega168'
p878
saa(lp879
S'atmega168'
p880
a(dp881
S'build'
p882
(dp883
S'core'
p884
S'arduino'
p885
sS'mcu'
p886
S'atmega168'
p887
sS'f_cpu'
p888
S'16000000L'
p889
sS'variant'
p890
S'standard'
p891
ssS'bootloader'
p892
(dp893
S'extended_fuses'
p894
S'0x00'
p895
sS'high_fuses'
p896
S'0xdd'
p897
sS'low_fuses'
p898
S'0xff'
p899
sS'lock_bits'
p900
S'0x0F'
p901
sS'file'
p902
S'ATmegaBOOT_168_ng.hex'
p903
sS'path'
p904
S'atmega'
p905
sS'unlock_bits'
p906
S'0x3F'
p907
ssS'upload'
p908
(dp909
S'protocol'
p910
S'arduino'
p911
sS'maximum_size'
p912
S'14336'
p913
sS'speed'
p914
S'19200'
p915
ssS'name'
p916
S'Arduino NG or older w/ ATmega168'
p917
saa(lp918
S'atmega8'
p919
a(dp920
S'build'
p921
(dp922
S'core'
p923
S'arduino'
p924
sS'mcu'
p925
S'atmega8'
p926
sS'f_cpu'
p927
S'16000000L'
p928
sS'variant'
p929
S'standard'
p930
ssS'bootloader'
p931
(dp932
S'high_fuses'
p933
S'0xca'
p934
sS'low_fuses'
p935
S'0xdf'
p936
sS'lock_bits'
p937
S'0x0F'
p938
sS'file'
p939
S'ATmegaBOOT.hex'
p940
sS'path'
p941
S'atmega8'
p942
sS'unlock_bits'
p943
S'0x3F'
p944
ssS'upload'
p945
(dp946
S'protocol'
p947
S'arduino'
p948
sS'maximum_size'
p949
S'7168'
p950
sS'speed'
p951
S'19200'
p952
ssS'name'
p953
S'Arduino NG or older w/ ATmega8'
p954
saatp955
Rp956
(dp957
S'default'
p958
S'uno'
p959
sbtp960
a(S'deps'
p961
g29
(g30
g31
(lp962
S'.build/alamode/src/dependencies.d'
p963
aS'.build/alamode/arduino/dependencies.d'
p964
atp965
Rp966
tp967
a.