(lp0
(S'elfflags'
p1
ccopy_reg
_reconstructor
p2
(cino.utils
SpaceList
p3
c__builtin__
list
p4
(lp5
S'-Os'
p6
aS'-Wl,--gc-sections'
p7
aS'-mmcu=atmega328p'
p8
atp9
Rp10
tp11
a(S'version.txt'
p12
S'/usr/share/arduino/lib/version.txt'
p13
tp14
a(S'used_libs'
p15
(lp16
S'/usr/share/arduino/hardware/arduino/cores/arduino'
p17
atp18
a(S'cc'
p19
S'/usr/bin/avr-gcc'
p20
tp21
a(S'stty'
p22
S'/bin/stty'
p23
tp24
a(S'cflags'
p25
g2
(g3
g4
(lp26
g8
aS'-ffunction-sections'
p27
aS'-fdata-sections'
p28
aS'-g'
p29
ag6
aS'-w'
p30
aS'-DF_CPU=16000000L'
p31
aS'-DARDUINO=100'
p32
aS'-I/usr/share/arduino/hardware/arduino/cores/arduino'
p33
aS'-I/usr/share/arduino/hardware/arduino/variants/standard'
p34
aS'-I/usr/share/arduino/hardware/arduino/cores/arduino'
p35
atp36
Rp37
tp38
a(S'avrdude.conf'
p39
S'/usr/share/arduino/hardware/tools/avrdude.conf'
p40
tp41
a(S'build_dir'
p42
S'.build/alamode'
p43
tp44
a(S'arduino_core_dir'
p45
g17
tp46
a(S'boards.txt'
p47
S'/usr/share/arduino/hardware/arduino/boards.txt'
p48
tp49
a(S'cxxflags'
p50
g2
(g3
g4
(lp51
S'-fno-exceptions'
p52
atp53
Rp54
tp55
a(S'arduino_variants_dir'
p56
S'/usr/share/arduino/hardware/arduino/variants'
p57
tp58
a(S'avrdude'
p59
S'/usr/share/arduino/hardware/tools/avrdude'
p60
tp61
a(S'ar'
p62
S'/usr/bin/avr-ar'
p63
tp64
a(S'names'
p65
(dp66
S'cpp'
p67
S'%s.cpp'
p68
sS'obj'
p69
S'%s.o'
p70
sS'lib'
p71
S'lib%s.a'
p72
sS'deps'
p73
S'%s.d'
p74
stp75
a(g73
g2
(g3
g4
(lp76
S'.build/alamode/src/dependencies.d'
p77
aS'.build/alamode/arduino/dependencies.d'
p78
atp79
Rp80
tp81
a(S'arduino_libraries_dir'
p82
S'/usr/share/arduino/libraries'
p83
tp84
a(S'arduino_lib_version'
p85
g2
(cino.environment
Version
p86
c__builtin__
tuple
p87
(I1
I0
tp88
tp89
Rp90
tp91
a(S'objcopy'
p92
S'/usr/bin/avr-objcopy'
p93
tp94
a(S'board_models'
p95
cino.environment
BoardModels
p96
((lp97
(lp98
S'uno'
p99
a(dp100
S'bootloader'
p101
(dp102
S'extended_fuses'
p103
S'0x05'
p104
sS'high_fuses'
p105
S'0xde'
p106
sS'low_fuses'
p107
S'0xff'
p108
sS'lock_bits'
p109
S'0x0F'
p110
sS'file'
p111
S'optiboot_atmega328.hex'
p112
sS'path'
p113
S'optiboot'
p114
sS'unlock_bits'
p115
S'0x3F'
p116
ssS'upload'
p117
(dp118
S'protocol'
p119
S'arduino'
p120
sS'maximum_size'
p121
S'32256'
p122
sS'speed'
p123
S'115200'
p124
ssS'build'
p125
(dp126
S'core'
p127
S'arduino'
p128
sS'mcu'
p129
S'atmega328p'
p130
sS'f_cpu'
p131
S'16000000L'
p132
sS'variant'
p133
S'standard'
p134
ssS'name'
p135
S'Arduino Uno'
p136
saa(lp137
S'alamode'
p138
a(dp139
S'bootloader'
p140
(dp141
S'extended_fuses'
p142
S'0x05'
p143
sS'high_fuses'
p144
S'0xde'
p145
sS'low_fuses'
p146
S'0xff'
p147
sS'lock_bits'
p148
S'0x0F'
p149
sS'file'
p150
S'optiboot_atmega328.hex'
p151
sS'path'
p152
S'optiboot'
p153
sS'unlock_bits'
p154
S'0x3F'
p155
ssS'upload'
p156
(dp157
S'protocol'
p158
S'alamode'
p159
sS'maximum_size'
p160
S'32256'
p161
sS'speed'
p162
S'115200'
p163
ssS'build'
p164
(dp165
S'core'
p166
S'arduino'
p167
sS'mcu'
p168
S'atmega328p'
p169
sS'f_cpu'
p170
S'16000000L'
p171
sS'variant'
p172
S'standard'
p173
ssS'name'
p174
S'AlaMode'
p175
saa(lp176
S'atmega328'
p177
a(dp178
S'bootloader'
p179
(dp180
S'extended_fuses'
p181
S'0x05'
p182
sS'high_fuses'
p183
S'0xDA'
p184
sS'low_fuses'
p185
S'0xFF'
p186
sS'lock_bits'
p187
S'0x0F'
p188
sS'file'
p189
S'ATmegaBOOT_168_atmega328.hex'
p190
sS'path'
p191
S'atmega'
p192
sS'unlock_bits'
p193
S'0x3F'
p194
ssS'upload'
p195
(dp196
S'protocol'
p197
S'arduino'
p198
sS'maximum_size'
p199
S'30720'
p200
sS'speed'
p201
S'57600'
p202
ssS'build'
p203
(dp204
S'core'
p205
S'arduino'
p206
sS'mcu'
p207
S'atmega328p'
p208
sS'f_cpu'
p209
S'16000000L'
p210
sS'variant'
p211
S'standard'
p212
ssS'name'
p213
S'Arduino Duemilanove w/ ATmega328'
p214
saa(lp215
S'diecimila'
p216
a(dp217
S'bootloader'
p218
(dp219
S'extended_fuses'
p220
S'0x00'
p221
sS'high_fuses'
p222
S'0xdd'
p223
sS'low_fuses'
p224
S'0xff'
p225
sS'lock_bits'
p226
S'0x0F'
p227
sS'file'
p228
S'ATmegaBOOT_168_diecimila.hex'
p229
sS'path'
p230
S'atmega'
p231
sS'unlock_bits'
p232
S'0x3F'
p233
ssS'upload'
p234
(dp235
S'protocol'
p236
S'arduino'
p237
sS'maximum_size'
p238
S'14336'
p239
sS'speed'
p240
S'19200'
p241
ssS'build'
p242
(dp243
S'core'
p244
S'arduino'
p245
sS'mcu'
p246
S'atmega168'
p247
sS'f_cpu'
p248
S'16000000L'
p249
sS'variant'
p250
S'standard'
p251
ssS'name'
p252
S'Arduino Diecimila or Duemilanove w/ ATmega168'
p253
saa(lp254
S'nano328'
p255
a(dp256
S'bootloader'
p257
(dp258
S'extended_fuses'
p259
S'0x05'
p260
sS'high_fuses'
p261
S'0xDA'
p262
sS'low_fuses'
p263
S'0xFF'
p264
sS'lock_bits'
p265
S'0x0F'
p266
sS'file'
p267
S'ATmegaBOOT_168_atmega328.hex'
p268
sS'path'
p269
S'atmega'
p270
sS'unlock_bits'
p271
S'0x3F'
p272
ssS'upload'
p273
(dp274
S'protocol'
p275
S'arduino'
p276
sS'maximum_size'
p277
S'30720'
p278
sS'speed'
p279
S'57600'
p280
ssS'build'
p281
(dp282
S'core'
p283
S'arduino'
p284
sS'mcu'
p285
S'atmega328p'
p286
sS'f_cpu'
p287
S'16000000L'
p288
sS'variant'
p289
S'eightanaloginputs'
p290
ssS'name'
p291
S'Arduino Nano w/ ATmega328'
p292
saa(lp293
S'nano'
p294
a(dp295
S'bootloader'
p296
(dp297
S'extended_fuses'
p298
S'0x00'
p299
sS'high_fuses'
p300
S'0xdd'
p301
sS'low_fuses'
p302
S'0xff'
p303
sS'lock_bits'
p304
S'0x0F'
p305
sS'file'
p306
S'ATmegaBOOT_168_diecimila.hex'
p307
sS'path'
p308
S'atmega'
p309
sS'unlock_bits'
p310
S'0x3F'
p311
ssS'upload'
p312
(dp313
S'protocol'
p314
S'arduino'
p315
sS'maximum_size'
p316
S'14336'
p317
sS'speed'
p318
S'19200'
p319
ssS'build'
p320
(dp321
S'core'
p322
S'arduino'
p323
sS'mcu'
p324
S'atmega168'
p325
sS'f_cpu'
p326
S'16000000L'
p327
sS'variant'
p328
S'eightanaloginputs'
p329
ssS'name'
p330
S'Arduino Nano w/ ATmega168'
p331
saa(lp332
S'mega2560'
p333
a(dp334
S'bootloader'
p335
(dp336
S'extended_fuses'
p337
S'0xFD'
p338
sS'high_fuses'
p339
S'0xD8'
p340
sS'low_fuses'
p341
S'0xFF'
p342
sS'lock_bits'
p343
S'0x0F'
p344
sS'file'
p345
S'stk500boot_v2_mega2560.hex'
p346
sS'path'
p347
S'stk500v2'
p348
sS'unlock_bits'
p349
S'0x3F'
p350
ssS'upload'
p351
(dp352
S'protocol'
p353
S'stk500v2'
p354
sS'maximum_size'
p355
S'258048'
p356
sS'speed'
p357
S'115200'
p358
ssS'build'
p359
(dp360
S'core'
p361
S'arduino'
p362
sS'mcu'
p363
S'atmega2560'
p364
sS'f_cpu'
p365
S'16000000L'
p366
sS'variant'
p367
S'mega'
p368
ssS'name'
p369
S'Arduino Mega 2560 or Mega ADK'
p370
saa(lp371
S'mega'
p372
a(dp373
S'bootloader'
p374
(dp375
S'extended_fuses'
p376
S'0xF5'
p377
sS'high_fuses'
p378
S'0xDA'
p379
sS'low_fuses'
p380
S'0xFF'
p381
sS'lock_bits'
p382
S'0x0F'
p383
sS'file'
p384
S'ATmegaBOOT_168_atmega1280.hex'
p385
sS'path'
p386
S'atmega'
p387
sS'unlock_bits'
p388
S'0x3F'
p389
ssS'upload'
p390
(dp391
S'protocol'
p392
S'arduino'
p393
sS'maximum_size'
p394
S'126976'
p395
sS'speed'
p396
S'57600'
p397
ssS'build'
p398
(dp399
S'core'
p400
S'arduino'
p401
sS'mcu'
p402
S'atmega1280'
p403
sS'f_cpu'
p404
S'16000000L'
p405
sS'variant'
p406
S'mega'
p407
ssS'name'
p408
S'Arduino Mega (ATmega1280)'
p409
saa(lp410
S'mini328'
p411
a(dp412
S'bootloader'
p413
(dp414
S'extended_fuses'
p415
S'0x05'
p416
sS'high_fuses'
p417
S'0xd8'
p418
sS'low_fuses'
p419
S'0xff'
p420
sS'lock_bits'
p421
S'0x0F'
p422
sS'file'
p423
S'optiboot_atmega328-Mini.hex'
p424
sS'path'
p425
S'optiboot'
p426
sS'unlock_bits'
p427
S'0x3F'
p428
ssS'upload'
p429
(dp430
S'protocol'
p431
S'stk500'
p432
sS'maximum_size'
p433
S'28672'
p434
sS'speed'
p435
S'115200'
p436
ssS'build'
p437
(dp438
S'core'
p439
S'arduino'
p440
sS'mcu'
p441
S'atmega328p'
p442
sS'f_cpu'
p443
S'16000000L'
p444
sS'variant'
p445
S'eightanaloginputs'
p446
ssS'name'
p447
S'Arduino Mini w/ ATmega328'
p448
saa(lp449
S'mini'
p450
a(dp451
S'bootloader'
p452
(dp453
S'extended_fuses'
p454
S'0x00'
p455
sS'high_fuses'
p456
S'0xdd'
p457
sS'low_fuses'
p458
S'0xff'
p459
sS'lock_bits'
p460
S'0x0F'
p461
sS'file'
p462
S'ATmegaBOOT_168_ng.hex'
p463
sS'path'
p464
S'atmega'
p465
sS'unlock_bits'
p466
S'0x3F'
p467
ssS'upload'
p468
(dp469
S'protocol'
p470
S'arduino'
p471
sS'maximum_size'
p472
S'14336'
p473
sS'speed'
p474
S'19200'
p475
ssS'build'
p476
(dp477
S'core'
p478
S'arduino'
p479
sS'mcu'
p480
S'atmega168'
p481
sS'f_cpu'
p482
S'16000000L'
p483
sS'variant'
p484
S'eightanaloginputs'
p485
ssS'name'
p486
S'Arduino Mini w/ ATmega168'
p487
saa(lp488
S'ethernet'
p489
a(dp490
S'bootloader'
p491
(dp492
S'extended_fuses'
p493
S'0x05'
p494
sS'high_fuses'
p495
S'0xde'
p496
sS'low_fuses'
p497
S'0xff'
p498
sS'lock_bits'
p499
S'0x0F'
p500
sS'file'
p501
S'optiboot_atmega328.hex'
p502
sS'path'
p503
S'optiboot'
p504
sS'unlock_bits'
p505
S'0x3F'
p506
ssS'upload'
p507
(dp508
S'protocol'
p509
S'arduino'
p510
sS'maximum_size'
p511
S'32256'
p512
sS'speed'
p513
S'115200'
p514
ssS'build'
p515
(dp516
S'variant'
p517
S'standard'
p518
sS'mcu'
p519
S'atmega328p'
p520
sS'f_cpu'
p521
S'16000000L'
p522
sS'core'
p523
S'arduino'
p524
ssS'name'
p525
S'Arduino Ethernet'
p526
saa(lp527
S'fio'
p528
a(dp529
S'bootloader'
p530
(dp531
S'extended_fuses'
p532
S'0x05'
p533
sS'high_fuses'
p534
S'0xDA'
p535
sS'low_fuses'
p536
S'0xFF'
p537
sS'lock_bits'
p538
S'0x0F'
p539
sS'file'
p540
S'ATmegaBOOT_168_atmega328_pro_8MHz.hex'
p541
sS'path'
p542
S'arduino:atmega'
p543
sS'unlock_bits'
p544
S'0x3F'
p545
ssS'upload'
p546
(dp547
S'protocol'
p548
S'arduino'
p549
sS'maximum_size'
p550
S'30720'
p551
sS'speed'
p552
S'57600'
p553
ssS'build'
p554
(dp555
S'core'
p556
S'arduino'
p557
sS'mcu'
p558
S'atmega328p'
p559
sS'f_cpu'
p560
S'8000000L'
p561
sS'variant'
p562
S'eightanaloginputs'
p563
ssS'name'
p564
S'Arduino Fio'
p565
saa(lp566
S'bt328'
p567
a(dp568
S'bootloader'
p569
(dp570
S'extended_fuses'
p571
S'0x05'
p572
sS'high_fuses'
p573
S'0xd8'
p574
sS'low_fuses'
p575
S'0xff'
p576
sS'lock_bits'
p577
S'0x0F'
p578
sS'file'
p579
S'ATmegaBOOT_168_atmega328_bt.hex'
p580
sS'path'
p581
S'bt'
p582
sS'unlock_bits'
p583
S'0x3F'
p584
ssS'upload'
p585
(dp586
S'protocol'
p587
S'arduino'
p588
sS'maximum_size'
p589
S'28672'
p590
sS'speed'
p591
S'19200'
p592
sS'disable_flushing'
p593
S'true'
p594
ssS'build'
p595
(dp596
S'core'
p597
S'arduino'
p598
sS'mcu'
p599
S'atmega328p'
p600
sS'f_cpu'
p601
S'16000000L'
p602
sS'variant'
p603
S'eightanaloginputs'
p604
ssS'name'
p605
S'Arduino BT w/ ATmega328'
p606
saa(lp607
S'bt'
p608
a(dp609
S'bootloader'
p610
(dp611
S'extended_fuses'
p612
S'0x00'
p613
sS'high_fuses'
p614
S'0xdd'
p615
sS'low_fuses'
p616
S'0xff'
p617
sS'lock_bits'
p618
S'0x0F'
p619
sS'file'
p620
S'ATmegaBOOT_168.hex'
p621
sS'path'
p622
S'bt'
p623
sS'unlock_bits'
p624
S'0x3F'
p625
ssS'upload'
p626
(dp627
S'protocol'
p628
S'arduino'
p629
sS'maximum_size'
p630
S'14336'
p631
sS'speed'
p632
S'19200'
p633
sS'disable_flushing'
p634
S'true'
p635
ssS'build'
p636
(dp637
S'core'
p638
S'arduino'
p639
sS'mcu'
p640
S'atmega168'
p641
sS'f_cpu'
p642
S'16000000L'
p643
sS'variant'
p644
S'eightanaloginputs'
p645
ssS'name'
p646
S'Arduino BT w/ ATmega168'
p647
saa(lp648
S'lilypad328'
p649
a(dp650
S'bootloader'
p651
(dp652
S'extended_fuses'
p653
S'0x05'
p654
sS'high_fuses'
p655
S'0xDA'
p656
sS'low_fuses'
p657
S'0xFF'
p658
sS'lock_bits'
p659
S'0x0F'
p660
sS'file'
p661
S'ATmegaBOOT_168_atmega328_pro_8MHz.hex'
p662
sS'path'
p663
S'atmega'
p664
sS'unlock_bits'
p665
S'0x3F'
p666
ssS'upload'
p667
(dp668
S'protocol'
p669
S'arduino'
p670
sS'maximum_size'
p671
S'30720'
p672
sS'speed'
p673
S'57600'
p674
ssS'build'
p675
(dp676
S'core'
p677
S'arduino'
p678
sS'mcu'
p679
S'atmega328p'
p680
sS'f_cpu'
p681
S'8000000L'
p682
sS'variant'
p683
S'standard'
p684
ssS'name'
p685
S'LilyPad Arduino w/ ATmega328'
p686
saa(lp687
S'lilypad'
p688
a(dp689
S'bootloader'
p690
(dp691
S'extended_fuses'
p692
S'0x00'
p693
sS'high_fuses'
p694
S'0xdd'
p695
sS'low_fuses'
p696
S'0xe2'
p697
sS'lock_bits'
p698
S'0x0F'
p699
sS'file'
p700
S'LilyPadBOOT_168.hex'
p701
sS'path'
p702
S'lilypad'
p703
sS'unlock_bits'
p704
S'0x3F'
p705
ssS'upload'
p706
(dp707
S'protocol'
p708
S'arduino'
p709
sS'maximum_size'
p710
S'14336'
p711
sS'speed'
p712
S'19200'
p713
ssS'build'
p714
(dp715
S'core'
p716
S'arduino'
p717
sS'mcu'
p718
S'atmega168'
p719
sS'f_cpu'
p720
S'8000000L'
p721
sS'variant'
p722
S'standard'
p723
ssS'name'
p724
S'LilyPad Arduino w/ ATmega168'
p725
saa(lp726
S'pro5v328'
p727
a(dp728
S'bootloader'
p729
(dp730
S'extended_fuses'
p731
S'0x05'
p732
sS'high_fuses'
p733
S'0xDA'
p734
sS'low_fuses'
p735
S'0xFF'
p736
sS'lock_bits'
p737
S'0x0F'
p738
sS'file'
p739
S'ATmegaBOOT_168_atmega328.hex'
p740
sS'path'
p741
S'atmega'
p742
sS'unlock_bits'
p743
S'0x3F'
p744
ssS'upload'
p745
(dp746
S'protocol'
p747
S'arduino'
p748
sS'maximum_size'
p749
S'30720'
p750
sS'speed'
p751
S'57600'
p752
ssS'build'
p753
(dp754
S'core'
p755
S'arduino'
p756
sS'mcu'
p757
S'atmega328p'
p758
sS'f_cpu'
p759
S'16000000L'
p760
sS'variant'
p761
S'standard'
p762
ssS'name'
p763
S'Arduino Pro or Pro Mini (5V, 16 MHz) w/ ATmega328'
p764
saa(lp765
S'pro5v'
p766
a(dp767
S'bootloader'
p768
(dp769
S'extended_fuses'
p770
S'0x00'
p771
sS'high_fuses'
p772
S'0xdd'
p773
sS'low_fuses'
p774
S'0xff'
p775
sS'lock_bits'
p776
S'0x0F'
p777
sS'file'
p778
S'ATmegaBOOT_168_diecimila.hex'
p779
sS'path'
p780
S'atmega'
p781
sS'unlock_bits'
p782
S'0x3F'
p783
ssS'upload'
p784
(dp785
S'protocol'
p786
S'arduino'
p787
sS'maximum_size'
p788
S'14336'
p789
sS'speed'
p790
S'19200'
p791
ssS'build'
p792
(dp793
S'core'
p794
S'arduino'
p795
sS'mcu'
p796
S'atmega168'
p797
sS'f_cpu'
p798
S'16000000L'
p799
sS'variant'
p800
S'standard'
p801
ssS'name'
p802
S'Arduino Pro or Pro Mini (5V, 16 MHz) w/ ATmega168'
p803
saa(lp804
S'pro328'
p805
a(dp806
S'bootloader'
p807
(dp808
S'extended_fuses'
p809
S'0x05'
p810
sS'high_fuses'
p811
S'0xDA'
p812
sS'low_fuses'
p813
S'0xFF'
p814
sS'lock_bits'
p815
S'0x0F'
p816
sS'file'
p817
S'ATmegaBOOT_168_atmega328_pro_8MHz.hex'
p818
sS'path'
p819
S'atmega'
p820
sS'unlock_bits'
p821
S'0x3F'
p822
ssS'upload'
p823
(dp824
S'protocol'
p825
S'arduino'
p826
sS'maximum_size'
p827
S'30720'
p828
sS'speed'
p829
S'57600'
p830
ssS'build'
p831
(dp832
S'core'
p833
S'arduino'
p834
sS'mcu'
p835
S'atmega328p'
p836
sS'f_cpu'
p837
S'8000000L'
p838
sS'variant'
p839
S'standard'
p840
ssS'name'
p841
S'Arduino Pro or Pro Mini (3.3V, 8 MHz) w/ ATmega328'
p842
saa(lp843
S'pro'
p844
a(dp845
S'bootloader'
p846
(dp847
S'extended_fuses'
p848
S'0x00'
p849
sS'high_fuses'
p850
S'0xdd'
p851
sS'low_fuses'
p852
S'0xc6'
p853
sS'lock_bits'
p854
S'0x0F'
p855
sS'file'
p856
S'ATmegaBOOT_168_pro_8MHz.hex'
p857
sS'path'
p858
S'atmega'
p859
sS'unlock_bits'
p860
S'0x3F'
p861
ssS'upload'
p862
(dp863
S'protocol'
p864
S'arduino'
p865
sS'maximum_size'
p866
S'14336'
p867
sS'speed'
p868
S'19200'
p869
ssS'build'
p870
(dp871
S'core'
p872
S'arduino'
p873
sS'mcu'
p874
S'atmega168'
p875
sS'f_cpu'
p876
S'8000000L'
p877
sS'variant'
p878
S'standard'
p879
ssS'name'
p880
S'Arduino Pro or Pro Mini (3.3V, 8 MHz) w/ ATmega168'
p881
saa(lp882
S'atmega168'
p883
a(dp884
S'bootloader'
p885
(dp886
S'extended_fuses'
p887
S'0x00'
p888
sS'high_fuses'
p889
S'0xdd'
p890
sS'low_fuses'
p891
S'0xff'
p892
sS'lock_bits'
p893
S'0x0F'
p894
sS'file'
p895
S'ATmegaBOOT_168_ng.hex'
p896
sS'path'
p897
S'atmega'
p898
sS'unlock_bits'
p899
S'0x3F'
p900
ssS'upload'
p901
(dp902
S'protocol'
p903
S'arduino'
p904
sS'maximum_size'
p905
S'14336'
p906
sS'speed'
p907
S'19200'
p908
ssS'build'
p909
(dp910
S'core'
p911
S'arduino'
p912
sS'mcu'
p913
S'atmega168'
p914
sS'f_cpu'
p915
S'16000000L'
p916
sS'variant'
p917
S'standard'
p918
ssS'name'
p919
S'Arduino NG or older w/ ATmega168'
p920
saa(lp921
S'atmega8'
p922
a(dp923
S'bootloader'
p924
(dp925
S'high_fuses'
p926
S'0xca'
p927
sS'low_fuses'
p928
S'0xdf'
p929
sS'lock_bits'
p930
S'0x0F'
p931
sS'file'
p932
S'ATmegaBOOT.hex'
p933
sS'path'
p934
S'atmega8'
p935
sS'unlock_bits'
p936
S'0x3F'
p937
ssS'upload'
p938
(dp939
S'protocol'
p940
S'arduino'
p941
sS'maximum_size'
p942
S'7168'
p943
sS'speed'
p944
S'19200'
p945
ssS'build'
p946
(dp947
S'core'
p948
S'arduino'
p949
sS'mcu'
p950
S'atmega8'
p951
sS'f_cpu'
p952
S'16000000L'
p953
sS'variant'
p954
S'standard'
p955
ssS'name'
p956
S'Arduino NG or older w/ ATmega8'
p957
saatp958
Rp959
(dp960
S'default'
p961
S'uno'
p962
sbtp963
a(S'cxx'
p964
S'/usr/bin/avr-g++'
p965
tp966
a.