(lp0
(S'stty'
p1
S'/bin/stty'
p2
tp3
a(S'version.txt'
p4
S'/usr/share/arduino/lib/version.txt'
p5
tp6
a(S'used_libs'
p7
(lp8
S'/usr/share/arduino/hardware/arduino/cores/arduino'
p9
atp10
a(S'cxx'
p11
S'/usr/bin/avr-g++'
p12
tp13
a(S'cflags'
p14
ccopy_reg
_reconstructor
p15
(cino.utils
SpaceList
p16
c__builtin__
list
p17
(lp18
S'-mmcu=atmega328p'
p19
aS'-ffunction-sections'
p20
aS'-fdata-sections'
p21
aS'-g'
p22
aS'-Os'
p23
aS'-w'
p24
aS'-DF_CPU=16000000L'
p25
aS'-DARDUINO=100'
p26
aS'-I/usr/share/arduino/hardware/arduino/cores/arduino'
p27
aS'-I/usr/share/arduino/hardware/arduino/variants/standard'
p28
aS'-I/usr/share/arduino/hardware/arduino/cores/arduino'
p29
atp30
Rp31
tp32
a(S'arduino_libraries_dir'
p33
S'/usr/share/arduino/libraries'
p34
tp35
a(S'arduino_core_dir'
p36
g9
tp37
a(S'boards.txt'
p38
S'/usr/share/arduino/hardware/arduino/boards.txt'
p39
tp40
a(S'cxxflags'
p41
g15
(g16
g17
(lp42
S'-fno-exceptions'
p43
atp44
Rp45
tp46
a(S'arduino_variants_dir'
p47
S'/usr/share/arduino/hardware/arduino/variants'
p48
tp49
a(S'avrdude'
p50
S'/usr/share/arduino/hardware/tools/avrdude'
p51
tp52
a(S'avrdude.conf'
p53
S'/usr/share/arduino/hardware/tools/avrdude.conf'
p54
tp55
a(S'names'
p56
(dp57
S'cpp'
p58
S'%s.cpp'
p59
sS'obj'
p60
S'%s.o'
p61
sS'lib'
p62
S'lib%s.a'
p63
sS'deps'
p64
S'%s.d'
p65
stp66
a(S'deps'
p67
g15
(g16
g17
(lp68
S'.build/uno/src/dependencies.d'
p69
aS'.build/uno/arduino/dependencies.d'
p70
atp71
Rp72
tp73
a(S'elfflags'
p74
g15
(g16
g17
(lp75
g23
aS'-Wl,--gc-sections'
p76
ag19
atp77
Rp78
tp79
a(S'arduino_lib_version'
p80
g15
(cino.environment
Version
p81
c__builtin__
tuple
p82
(I1
I0
tp83
tp84
Rp85
tp86
a(S'objcopy'
p87
S'/usr/bin/avr-objcopy'
p88
tp89
a(S'ar'
p90
S'/usr/bin/avr-ar'
p91
tp92
a(S'board_models'
p93
cino.environment
BoardModels
p94
((lp95
(lp96
S'uno'
p97
a(dp98
S'build'
p99
(dp100
S'core'
p101
S'arduino'
p102
sS'mcu'
p103
S'atmega328p'
p104
sS'f_cpu'
p105
S'16000000L'
p106
sS'variant'
p107
S'standard'
p108
ssS'bootloader'
p109
(dp110
S'extended_fuses'
p111
S'0x05'
p112
sS'high_fuses'
p113
S'0xde'
p114
sS'low_fuses'
p115
S'0xff'
p116
sS'lock_bits'
p117
S'0x0F'
p118
sS'file'
p119
S'optiboot_atmega328.hex'
p120
sS'path'
p121
S'optiboot'
p122
sS'unlock_bits'
p123
S'0x3F'
p124
ssS'upload'
p125
(dp126
S'protocol'
p127
S'arduino'
p128
sS'maximum_size'
p129
S'32256'
p130
sS'speed'
p131
S'115200'
p132
ssS'name'
p133
S'Arduino Uno'
p134
saa(lp135
S'alamode'
p136
a(dp137
S'build'
p138
(dp139
S'core'
p140
S'arduino'
p141
sS'mcu'
p142
S'atmega328p'
p143
sS'f_cpu'
p144
S'16000000L'
p145
sS'variant'
p146
S'standard'
p147
ssS'bootloader'
p148
(dp149
S'extended_fuses'
p150
S'0x05'
p151
sS'high_fuses'
p152
S'0xde'
p153
sS'low_fuses'
p154
S'0xff'
p155
sS'lock_bits'
p156
S'0x0F'
p157
sS'file'
p158
S'optiboot_atmega328.hex'
p159
sS'path'
p160
S'optiboot'
p161
sS'unlock_bits'
p162
S'0x3F'
p163
ssS'upload'
p164
(dp165
S'protocol'
p166
S'alamode'
p167
sS'maximum_size'
p168
S'32256'
p169
sS'speed'
p170
S'115200'
p171
ssS'name'
p172
S'AlaMode'
p173
saa(lp174
S'atmega328'
p175
a(dp176
S'build'
p177
(dp178
S'core'
p179
S'arduino'
p180
sS'mcu'
p181
S'atmega328p'
p182
sS'f_cpu'
p183
S'16000000L'
p184
sS'variant'
p185
S'standard'
p186
ssS'bootloader'
p187
(dp188
S'extended_fuses'
p189
S'0x05'
p190
sS'high_fuses'
p191
S'0xDA'
p192
sS'low_fuses'
p193
S'0xFF'
p194
sS'lock_bits'
p195
S'0x0F'
p196
sS'file'
p197
S'ATmegaBOOT_168_atmega328.hex'
p198
sS'path'
p199
S'atmega'
p200
sS'unlock_bits'
p201
S'0x3F'
p202
ssS'upload'
p203
(dp204
S'protocol'
p205
S'arduino'
p206
sS'maximum_size'
p207
S'30720'
p208
sS'speed'
p209
S'57600'
p210
ssS'name'
p211
S'Arduino Duemilanove w/ ATmega328'
p212
saa(lp213
S'diecimila'
p214
a(dp215
S'build'
p216
(dp217
S'core'
p218
S'arduino'
p219
sS'mcu'
p220
S'atmega168'
p221
sS'f_cpu'
p222
S'16000000L'
p223
sS'variant'
p224
S'standard'
p225
ssS'bootloader'
p226
(dp227
S'extended_fuses'
p228
S'0x00'
p229
sS'high_fuses'
p230
S'0xdd'
p231
sS'low_fuses'
p232
S'0xff'
p233
sS'lock_bits'
p234
S'0x0F'
p235
sS'file'
p236
S'ATmegaBOOT_168_diecimila.hex'
p237
sS'path'
p238
S'atmega'
p239
sS'unlock_bits'
p240
S'0x3F'
p241
ssS'upload'
p242
(dp243
S'protocol'
p244
S'arduino'
p245
sS'maximum_size'
p246
S'14336'
p247
sS'speed'
p248
S'19200'
p249
ssS'name'
p250
S'Arduino Diecimila or Duemilanove w/ ATmega168'
p251
saa(lp252
S'nano328'
p253
a(dp254
S'build'
p255
(dp256
S'core'
p257
S'arduino'
p258
sS'mcu'
p259
S'atmega328p'
p260
sS'f_cpu'
p261
S'16000000L'
p262
sS'variant'
p263
S'eightanaloginputs'
p264
ssS'bootloader'
p265
(dp266
S'extended_fuses'
p267
S'0x05'
p268
sS'high_fuses'
p269
S'0xDA'
p270
sS'low_fuses'
p271
S'0xFF'
p272
sS'lock_bits'
p273
S'0x0F'
p274
sS'file'
p275
S'ATmegaBOOT_168_atmega328.hex'
p276
sS'path'
p277
S'atmega'
p278
sS'unlock_bits'
p279
S'0x3F'
p280
ssS'upload'
p281
(dp282
S'protocol'
p283
S'arduino'
p284
sS'maximum_size'
p285
S'30720'
p286
sS'speed'
p287
S'57600'
p288
ssS'name'
p289
S'Arduino Nano w/ ATmega328'
p290
saa(lp291
S'nano'
p292
a(dp293
S'build'
p294
(dp295
S'core'
p296
S'arduino'
p297
sS'mcu'
p298
S'atmega168'
p299
sS'f_cpu'
p300
S'16000000L'
p301
sS'variant'
p302
S'eightanaloginputs'
p303
ssS'bootloader'
p304
(dp305
S'extended_fuses'
p306
S'0x00'
p307
sS'high_fuses'
p308
S'0xdd'
p309
sS'low_fuses'
p310
S'0xff'
p311
sS'lock_bits'
p312
S'0x0F'
p313
sS'file'
p314
S'ATmegaBOOT_168_diecimila.hex'
p315
sS'path'
p316
S'atmega'
p317
sS'unlock_bits'
p318
S'0x3F'
p319
ssS'upload'
p320
(dp321
S'protocol'
p322
S'arduino'
p323
sS'maximum_size'
p324
S'14336'
p325
sS'speed'
p326
S'19200'
p327
ssS'name'
p328
S'Arduino Nano w/ ATmega168'
p329
saa(lp330
S'mega2560'
p331
a(dp332
S'build'
p333
(dp334
S'core'
p335
S'arduino'
p336
sS'mcu'
p337
S'atmega2560'
p338
sS'f_cpu'
p339
S'16000000L'
p340
sS'variant'
p341
S'mega'
p342
ssS'bootloader'
p343
(dp344
S'extended_fuses'
p345
S'0xFD'
p346
sS'high_fuses'
p347
S'0xD8'
p348
sS'low_fuses'
p349
S'0xFF'
p350
sS'lock_bits'
p351
S'0x0F'
p352
sS'file'
p353
S'stk500boot_v2_mega2560.hex'
p354
sS'path'
p355
S'stk500v2'
p356
sS'unlock_bits'
p357
S'0x3F'
p358
ssS'upload'
p359
(dp360
S'protocol'
p361
S'stk500v2'
p362
sS'maximum_size'
p363
S'258048'
p364
sS'speed'
p365
S'115200'
p366
ssS'name'
p367
S'Arduino Mega 2560 or Mega ADK'
p368
saa(lp369
S'mega'
p370
a(dp371
S'build'
p372
(dp373
S'core'
p374
S'arduino'
p375
sS'mcu'
p376
S'atmega1280'
p377
sS'f_cpu'
p378
S'16000000L'
p379
sS'variant'
p380
S'mega'
p381
ssS'bootloader'
p382
(dp383
S'extended_fuses'
p384
S'0xF5'
p385
sS'high_fuses'
p386
S'0xDA'
p387
sS'low_fuses'
p388
S'0xFF'
p389
sS'lock_bits'
p390
S'0x0F'
p391
sS'file'
p392
S'ATmegaBOOT_168_atmega1280.hex'
p393
sS'path'
p394
S'atmega'
p395
sS'unlock_bits'
p396
S'0x3F'
p397
ssS'upload'
p398
(dp399
S'protocol'
p400
S'arduino'
p401
sS'maximum_size'
p402
S'126976'
p403
sS'speed'
p404
S'57600'
p405
ssS'name'
p406
S'Arduino Mega (ATmega1280)'
p407
saa(lp408
S'mini328'
p409
a(dp410
S'build'
p411
(dp412
S'core'
p413
S'arduino'
p414
sS'mcu'
p415
S'atmega328p'
p416
sS'f_cpu'
p417
S'16000000L'
p418
sS'variant'
p419
S'eightanaloginputs'
p420
ssS'bootloader'
p421
(dp422
S'extended_fuses'
p423
S'0x05'
p424
sS'high_fuses'
p425
S'0xd8'
p426
sS'low_fuses'
p427
S'0xff'
p428
sS'lock_bits'
p429
S'0x0F'
p430
sS'file'
p431
S'optiboot_atmega328-Mini.hex'
p432
sS'path'
p433
S'optiboot'
p434
sS'unlock_bits'
p435
S'0x3F'
p436
ssS'upload'
p437
(dp438
S'protocol'
p439
S'stk500'
p440
sS'maximum_size'
p441
S'28672'
p442
sS'speed'
p443
S'115200'
p444
ssS'name'
p445
S'Arduino Mini w/ ATmega328'
p446
saa(lp447
S'mini'
p448
a(dp449
S'build'
p450
(dp451
S'core'
p452
S'arduino'
p453
sS'mcu'
p454
S'atmega168'
p455
sS'f_cpu'
p456
S'16000000L'
p457
sS'variant'
p458
S'eightanaloginputs'
p459
ssS'bootloader'
p460
(dp461
S'extended_fuses'
p462
S'0x00'
p463
sS'high_fuses'
p464
S'0xdd'
p465
sS'low_fuses'
p466
S'0xff'
p467
sS'lock_bits'
p468
S'0x0F'
p469
sS'file'
p470
S'ATmegaBOOT_168_ng.hex'
p471
sS'path'
p472
S'atmega'
p473
sS'unlock_bits'
p474
S'0x3F'
p475
ssS'upload'
p476
(dp477
S'protocol'
p478
S'arduino'
p479
sS'maximum_size'
p480
S'14336'
p481
sS'speed'
p482
S'19200'
p483
ssS'name'
p484
S'Arduino Mini w/ ATmega168'
p485
saa(lp486
S'ethernet'
p487
a(dp488
S'build'
p489
(dp490
S'variant'
p491
S'standard'
p492
sS'mcu'
p493
S'atmega328p'
p494
sS'f_cpu'
p495
S'16000000L'
p496
sS'core'
p497
S'arduino'
p498
ssS'bootloader'
p499
(dp500
S'extended_fuses'
p501
S'0x05'
p502
sS'high_fuses'
p503
S'0xde'
p504
sS'low_fuses'
p505
S'0xff'
p506
sS'lock_bits'
p507
S'0x0F'
p508
sS'file'
p509
S'optiboot_atmega328.hex'
p510
sS'path'
p511
S'optiboot'
p512
sS'unlock_bits'
p513
S'0x3F'
p514
ssS'upload'
p515
(dp516
S'protocol'
p517
S'arduino'
p518
sS'maximum_size'
p519
S'32256'
p520
sS'speed'
p521
S'115200'
p522
ssS'name'
p523
S'Arduino Ethernet'
p524
saa(lp525
S'fio'
p526
a(dp527
S'build'
p528
(dp529
S'core'
p530
S'arduino'
p531
sS'mcu'
p532
S'atmega328p'
p533
sS'f_cpu'
p534
S'8000000L'
p535
sS'variant'
p536
S'eightanaloginputs'
p537
ssS'bootloader'
p538
(dp539
S'extended_fuses'
p540
S'0x05'
p541
sS'high_fuses'
p542
S'0xDA'
p543
sS'low_fuses'
p544
S'0xFF'
p545
sS'lock_bits'
p546
S'0x0F'
p547
sS'file'
p548
S'ATmegaBOOT_168_atmega328_pro_8MHz.hex'
p549
sS'path'
p550
S'arduino:atmega'
p551
sS'unlock_bits'
p552
S'0x3F'
p553
ssS'upload'
p554
(dp555
S'protocol'
p556
S'arduino'
p557
sS'maximum_size'
p558
S'30720'
p559
sS'speed'
p560
S'57600'
p561
ssS'name'
p562
S'Arduino Fio'
p563
saa(lp564
S'bt328'
p565
a(dp566
S'build'
p567
(dp568
S'core'
p569
S'arduino'
p570
sS'mcu'
p571
S'atmega328p'
p572
sS'f_cpu'
p573
S'16000000L'
p574
sS'variant'
p575
S'eightanaloginputs'
p576
ssS'bootloader'
p577
(dp578
S'extended_fuses'
p579
S'0x05'
p580
sS'high_fuses'
p581
S'0xd8'
p582
sS'low_fuses'
p583
S'0xff'
p584
sS'lock_bits'
p585
S'0x0F'
p586
sS'file'
p587
S'ATmegaBOOT_168_atmega328_bt.hex'
p588
sS'path'
p589
S'bt'
p590
sS'unlock_bits'
p591
S'0x3F'
p592
ssS'upload'
p593
(dp594
S'protocol'
p595
S'arduino'
p596
sS'maximum_size'
p597
S'28672'
p598
sS'speed'
p599
S'19200'
p600
sS'disable_flushing'
p601
S'true'
p602
ssS'name'
p603
S'Arduino BT w/ ATmega328'
p604
saa(lp605
S'bt'
p606
a(dp607
S'build'
p608
(dp609
S'core'
p610
S'arduino'
p611
sS'mcu'
p612
S'atmega168'
p613
sS'f_cpu'
p614
S'16000000L'
p615
sS'variant'
p616
S'eightanaloginputs'
p617
ssS'bootloader'
p618
(dp619
S'extended_fuses'
p620
S'0x00'
p621
sS'high_fuses'
p622
S'0xdd'
p623
sS'low_fuses'
p624
S'0xff'
p625
sS'lock_bits'
p626
S'0x0F'
p627
sS'file'
p628
S'ATmegaBOOT_168.hex'
p629
sS'path'
p630
S'bt'
p631
sS'unlock_bits'
p632
S'0x3F'
p633
ssS'upload'
p634
(dp635
S'protocol'
p636
S'arduino'
p637
sS'maximum_size'
p638
S'14336'
p639
sS'speed'
p640
S'19200'
p641
sS'disable_flushing'
p642
S'true'
p643
ssS'name'
p644
S'Arduino BT w/ ATmega168'
p645
saa(lp646
S'lilypad328'
p647
a(dp648
S'build'
p649
(dp650
S'core'
p651
S'arduino'
p652
sS'mcu'
p653
S'atmega328p'
p654
sS'f_cpu'
p655
S'8000000L'
p656
sS'variant'
p657
S'standard'
p658
ssS'bootloader'
p659
(dp660
S'extended_fuses'
p661
S'0x05'
p662
sS'high_fuses'
p663
S'0xDA'
p664
sS'low_fuses'
p665
S'0xFF'
p666
sS'lock_bits'
p667
S'0x0F'
p668
sS'file'
p669
S'ATmegaBOOT_168_atmega328_pro_8MHz.hex'
p670
sS'path'
p671
S'atmega'
p672
sS'unlock_bits'
p673
S'0x3F'
p674
ssS'upload'
p675
(dp676
S'protocol'
p677
S'arduino'
p678
sS'maximum_size'
p679
S'30720'
p680
sS'speed'
p681
S'57600'
p682
ssS'name'
p683
S'LilyPad Arduino w/ ATmega328'
p684
saa(lp685
S'lilypad'
p686
a(dp687
S'build'
p688
(dp689
S'core'
p690
S'arduino'
p691
sS'mcu'
p692
S'atmega168'
p693
sS'f_cpu'
p694
S'8000000L'
p695
sS'variant'
p696
S'standard'
p697
ssS'bootloader'
p698
(dp699
S'extended_fuses'
p700
S'0x00'
p701
sS'high_fuses'
p702
S'0xdd'
p703
sS'low_fuses'
p704
S'0xe2'
p705
sS'lock_bits'
p706
S'0x0F'
p707
sS'file'
p708
S'LilyPadBOOT_168.hex'
p709
sS'path'
p710
S'lilypad'
p711
sS'unlock_bits'
p712
S'0x3F'
p713
ssS'upload'
p714
(dp715
S'protocol'
p716
S'arduino'
p717
sS'maximum_size'
p718
S'14336'
p719
sS'speed'
p720
S'19200'
p721
ssS'name'
p722
S'LilyPad Arduino w/ ATmega168'
p723
saa(lp724
S'pro5v328'
p725
a(dp726
S'build'
p727
(dp728
S'core'
p729
S'arduino'
p730
sS'mcu'
p731
S'atmega328p'
p732
sS'f_cpu'
p733
S'16000000L'
p734
sS'variant'
p735
S'standard'
p736
ssS'bootloader'
p737
(dp738
S'extended_fuses'
p739
S'0x05'
p740
sS'high_fuses'
p741
S'0xDA'
p742
sS'low_fuses'
p743
S'0xFF'
p744
sS'lock_bits'
p745
S'0x0F'
p746
sS'file'
p747
S'ATmegaBOOT_168_atmega328.hex'
p748
sS'path'
p749
S'atmega'
p750
sS'unlock_bits'
p751
S'0x3F'
p752
ssS'upload'
p753
(dp754
S'protocol'
p755
S'arduino'
p756
sS'maximum_size'
p757
S'30720'
p758
sS'speed'
p759
S'57600'
p760
ssS'name'
p761
S'Arduino Pro or Pro Mini (5V, 16 MHz) w/ ATmega328'
p762
saa(lp763
S'pro5v'
p764
a(dp765
S'build'
p766
(dp767
S'core'
p768
S'arduino'
p769
sS'mcu'
p770
S'atmega168'
p771
sS'f_cpu'
p772
S'16000000L'
p773
sS'variant'
p774
S'standard'
p775
ssS'bootloader'
p776
(dp777
S'extended_fuses'
p778
S'0x00'
p779
sS'high_fuses'
p780
S'0xdd'
p781
sS'low_fuses'
p782
S'0xff'
p783
sS'lock_bits'
p784
S'0x0F'
p785
sS'file'
p786
S'ATmegaBOOT_168_diecimila.hex'
p787
sS'path'
p788
S'atmega'
p789
sS'unlock_bits'
p790
S'0x3F'
p791
ssS'upload'
p792
(dp793
S'protocol'
p794
S'arduino'
p795
sS'maximum_size'
p796
S'14336'
p797
sS'speed'
p798
S'19200'
p799
ssS'name'
p800
S'Arduino Pro or Pro Mini (5V, 16 MHz) w/ ATmega168'
p801
saa(lp802
S'pro328'
p803
a(dp804
S'build'
p805
(dp806
S'core'
p807
S'arduino'
p808
sS'mcu'
p809
S'atmega328p'
p810
sS'f_cpu'
p811
S'8000000L'
p812
sS'variant'
p813
S'standard'
p814
ssS'bootloader'
p815
(dp816
S'extended_fuses'
p817
S'0x05'
p818
sS'high_fuses'
p819
S'0xDA'
p820
sS'low_fuses'
p821
S'0xFF'
p822
sS'lock_bits'
p823
S'0x0F'
p824
sS'file'
p825
S'ATmegaBOOT_168_atmega328_pro_8MHz.hex'
p826
sS'path'
p827
S'atmega'
p828
sS'unlock_bits'
p829
S'0x3F'
p830
ssS'upload'
p831
(dp832
S'protocol'
p833
S'arduino'
p834
sS'maximum_size'
p835
S'30720'
p836
sS'speed'
p837
S'57600'
p838
ssS'name'
p839
S'Arduino Pro or Pro Mini (3.3V, 8 MHz) w/ ATmega328'
p840
saa(lp841
S'pro'
p842
a(dp843
S'build'
p844
(dp845
S'core'
p846
S'arduino'
p847
sS'mcu'
p848
S'atmega168'
p849
sS'f_cpu'
p850
S'8000000L'
p851
sS'variant'
p852
S'standard'
p853
ssS'bootloader'
p854
(dp855
S'extended_fuses'
p856
S'0x00'
p857
sS'high_fuses'
p858
S'0xdd'
p859
sS'low_fuses'
p860
S'0xc6'
p861
sS'lock_bits'
p862
S'0x0F'
p863
sS'file'
p864
S'ATmegaBOOT_168_pro_8MHz.hex'
p865
sS'path'
p866
S'atmega'
p867
sS'unlock_bits'
p868
S'0x3F'
p869
ssS'upload'
p870
(dp871
S'protocol'
p872
S'arduino'
p873
sS'maximum_size'
p874
S'14336'
p875
sS'speed'
p876
S'19200'
p877
ssS'name'
p878
S'Arduino Pro or Pro Mini (3.3V, 8 MHz) w/ ATmega168'
p879
saa(lp880
S'atmega168'
p881
a(dp882
S'build'
p883
(dp884
S'core'
p885
S'arduino'
p886
sS'mcu'
p887
S'atmega168'
p888
sS'f_cpu'
p889
S'16000000L'
p890
sS'variant'
p891
S'standard'
p892
ssS'bootloader'
p893
(dp894
S'extended_fuses'
p895
S'0x00'
p896
sS'high_fuses'
p897
S'0xdd'
p898
sS'low_fuses'
p899
S'0xff'
p900
sS'lock_bits'
p901
S'0x0F'
p902
sS'file'
p903
S'ATmegaBOOT_168_ng.hex'
p904
sS'path'
p905
S'atmega'
p906
sS'unlock_bits'
p907
S'0x3F'
p908
ssS'upload'
p909
(dp910
S'protocol'
p911
S'arduino'
p912
sS'maximum_size'
p913
S'14336'
p914
sS'speed'
p915
S'19200'
p916
ssS'name'
p917
S'Arduino NG or older w/ ATmega168'
p918
saa(lp919
S'atmega8'
p920
a(dp921
S'build'
p922
(dp923
S'core'
p924
S'arduino'
p925
sS'mcu'
p926
S'atmega8'
p927
sS'f_cpu'
p928
S'16000000L'
p929
sS'variant'
p930
S'standard'
p931
ssS'bootloader'
p932
(dp933
S'high_fuses'
p934
S'0xca'
p935
sS'low_fuses'
p936
S'0xdf'
p937
sS'lock_bits'
p938
S'0x0F'
p939
sS'file'
p940
S'ATmegaBOOT.hex'
p941
sS'path'
p942
S'atmega8'
p943
sS'unlock_bits'
p944
S'0x3F'
p945
ssS'upload'
p946
(dp947
S'protocol'
p948
S'arduino'
p949
sS'maximum_size'
p950
S'7168'
p951
sS'speed'
p952
S'19200'
p953
ssS'name'
p954
S'Arduino NG or older w/ ATmega8'
p955
saatp956
Rp957
(dp958
S'default'
p959
S'uno'
p960
sbtp961
a(S'cc'
p962
S'/usr/bin/avr-gcc'
p963
tp964
a(S'build_dir'
p965
S'.build/uno'
p966
tp967
a.