(lp0
(S'objcopy'
p1
S'/usr/bin/avr-objcopy'
p2
tp3
a(S'stty'
p4
S'/bin/stty'
p5
tp6
a(S'version.txt'
p7
S'/usr/share/arduino/lib/version.txt'
p8
tp9
a(S'used_libs'
p10
(lp11
S'lib/ros_lib'
p12
aS'/usr/share/arduino/hardware/arduino/cores/arduino'
p13
atp14
a(S'cc'
p15
S'/usr/bin/avr-gcc'
p16
tp17
a(S'cflags'
p18
ccopy_reg
_reconstructor
p19
(cino.utils
SpaceList
p20
c__builtin__
list
p21
(lp22
S'-mmcu=atmega328p'
p23
aS'-ffunction-sections'
p24
aS'-fdata-sections'
p25
aS'-g'
p26
aS'-Os'
p27
aS'-w'
p28
aS'-DF_CPU=16000000L'
p29
aS'-DARDUINO=100'
p30
aS'-I/usr/share/arduino/hardware/arduino/cores/arduino'
p31
aS'-I/usr/share/arduino/hardware/arduino/variants/standard'
p32
aS'-Ilib/ros_lib'
p33
aS'-Ilib/ros_lib/tf'
p34
aS'-Ilib/ros_lib/std_msgs'
p35
aS'-Ilib/ros_lib/rosserial_msgs'
p36
aS'-Ilib/ros_lib/ros'
p37
aS'-Ilib/ros_lib/rosserial_arduino'
p38
aS'-Ilib/ros_lib/sensor_msgs'
p39
aS'-Ilib/ros_lib/geometry_msgs'
p40
aS'-Ilib/ros_lib/nav_msgs'
p41
aS'-Ilib/ros_lib/diagnostic_msgs'
p42
aS'-Ilib/ros_lib/tests'
p43
aS'-Ilib/ros_lib/tests/time_test'
p44
aS'-Ilib/ros_lib/tests/float64_test'
p45
aS'-Ilib/ros_lib/tests/array_test'
p46
aS'-I/usr/share/arduino/hardware/arduino/cores/arduino'
p47
atp48
Rp49
tp50
a(S'arduino_libraries_dir'
p51
S'/usr/share/arduino/libraries'
p52
tp53
a(S'arduino_core_dir'
p54
g13
tp55
a(S'build_dir'
p56
S'.build/uno'
p57
tp58
a(S'cxxflags'
p59
g19
(g20
g21
(lp60
S'-fno-exceptions'
p61
atp62
Rp63
tp64
a(S'arduino_variants_dir'
p65
S'/usr/share/arduino/hardware/arduino/variants'
p66
tp67
a(S'avrdude'
p68
S'/usr/share/arduino/hardware/tools/avrdude'
p69
tp70
a(S'avrdude.conf'
p71
S'/usr/share/arduino/hardware/tools/avrdude.conf'
p72
tp73
a(S'names'
p74
(dp75
S'cpp'
p76
S'%s.cpp'
p77
sS'obj'
p78
S'%s.o'
p79
sS'lib'
p80
S'lib%s.a'
p81
sS'deps'
p82
S'%s.d'
p83
stp84
a(S'deps'
p85
g19
(g20
g21
(lp86
S'.build/uno/src/dependencies.d'
p87
aS'.build/uno/arduino/dependencies.d'
p88
aS'.build/uno/ros_lib/dependencies.d'
p89
atp90
Rp91
tp92
a(S'elfflags'
p93
g19
(g20
g21
(lp94
g27
aS'-Wl,--gc-sections'
p95
ag23
atp96
Rp97
tp98
a(S'arduino_lib_version'
p99
g19
(cino.environment
Version
p100
c__builtin__
tuple
p101
(I1
I0
tp102
tp103
Rp104
tp105
a(S'boards.txt'
p106
S'/usr/share/arduino/hardware/arduino/boards.txt'
p107
tp108
a(S'ar'
p109
S'/usr/bin/avr-ar'
p110
tp111
a(S'board_models'
p112
cino.environment
BoardModels
p113
((lp114
(lp115
S'uno'
p116
a(dp117
S'build'
p118
(dp119
S'core'
p120
S'arduino'
p121
sS'mcu'
p122
S'atmega328p'
p123
sS'f_cpu'
p124
S'16000000L'
p125
sS'variant'
p126
S'standard'
p127
ssS'bootloader'
p128
(dp129
S'extended_fuses'
p130
S'0x05'
p131
sS'high_fuses'
p132
S'0xde'
p133
sS'low_fuses'
p134
S'0xff'
p135
sS'lock_bits'
p136
S'0x0F'
p137
sS'file'
p138
S'optiboot_atmega328.hex'
p139
sS'path'
p140
S'optiboot'
p141
sS'unlock_bits'
p142
S'0x3F'
p143
ssS'upload'
p144
(dp145
S'protocol'
p146
S'arduino'
p147
sS'maximum_size'
p148
S'32256'
p149
sS'speed'
p150
S'115200'
p151
ssS'name'
p152
S'Arduino Uno'
p153
saa(lp154
S'alamode'
p155
a(dp156
S'build'
p157
(dp158
S'core'
p159
S'arduino'
p160
sS'mcu'
p161
S'atmega328p'
p162
sS'f_cpu'
p163
S'16000000L'
p164
sS'variant'
p165
S'standard'
p166
ssS'bootloader'
p167
(dp168
S'extended_fuses'
p169
S'0x05'
p170
sS'high_fuses'
p171
S'0xde'
p172
sS'low_fuses'
p173
S'0xff'
p174
sS'lock_bits'
p175
S'0x0F'
p176
sS'file'
p177
S'optiboot_atmega328.hex'
p178
sS'path'
p179
S'optiboot'
p180
sS'unlock_bits'
p181
S'0x3F'
p182
ssS'upload'
p183
(dp184
S'protocol'
p185
S'alamode'
p186
sS'maximum_size'
p187
S'32256'
p188
sS'speed'
p189
S'115200'
p190
ssS'name'
p191
S'AlaMode'
p192
saa(lp193
S'atmega328'
p194
a(dp195
S'build'
p196
(dp197
S'core'
p198
S'arduino'
p199
sS'mcu'
p200
S'atmega328p'
p201
sS'f_cpu'
p202
S'16000000L'
p203
sS'variant'
p204
S'standard'
p205
ssS'bootloader'
p206
(dp207
S'extended_fuses'
p208
S'0x05'
p209
sS'high_fuses'
p210
S'0xDA'
p211
sS'low_fuses'
p212
S'0xFF'
p213
sS'lock_bits'
p214
S'0x0F'
p215
sS'file'
p216
S'ATmegaBOOT_168_atmega328.hex'
p217
sS'path'
p218
S'atmega'
p219
sS'unlock_bits'
p220
S'0x3F'
p221
ssS'upload'
p222
(dp223
S'protocol'
p224
S'arduino'
p225
sS'maximum_size'
p226
S'30720'
p227
sS'speed'
p228
S'57600'
p229
ssS'name'
p230
S'Arduino Duemilanove w/ ATmega328'
p231
saa(lp232
S'diecimila'
p233
a(dp234
S'build'
p235
(dp236
S'core'
p237
S'arduino'
p238
sS'mcu'
p239
S'atmega168'
p240
sS'f_cpu'
p241
S'16000000L'
p242
sS'variant'
p243
S'standard'
p244
ssS'bootloader'
p245
(dp246
S'extended_fuses'
p247
S'0x00'
p248
sS'high_fuses'
p249
S'0xdd'
p250
sS'low_fuses'
p251
S'0xff'
p252
sS'lock_bits'
p253
S'0x0F'
p254
sS'file'
p255
S'ATmegaBOOT_168_diecimila.hex'
p256
sS'path'
p257
S'atmega'
p258
sS'unlock_bits'
p259
S'0x3F'
p260
ssS'upload'
p261
(dp262
S'protocol'
p263
S'arduino'
p264
sS'maximum_size'
p265
S'14336'
p266
sS'speed'
p267
S'19200'
p268
ssS'name'
p269
S'Arduino Diecimila or Duemilanove w/ ATmega168'
p270
saa(lp271
S'nano328'
p272
a(dp273
S'build'
p274
(dp275
S'core'
p276
S'arduino'
p277
sS'mcu'
p278
S'atmega328p'
p279
sS'f_cpu'
p280
S'16000000L'
p281
sS'variant'
p282
S'eightanaloginputs'
p283
ssS'bootloader'
p284
(dp285
S'extended_fuses'
p286
S'0x05'
p287
sS'high_fuses'
p288
S'0xDA'
p289
sS'low_fuses'
p290
S'0xFF'
p291
sS'lock_bits'
p292
S'0x0F'
p293
sS'file'
p294
S'ATmegaBOOT_168_atmega328.hex'
p295
sS'path'
p296
S'atmega'
p297
sS'unlock_bits'
p298
S'0x3F'
p299
ssS'upload'
p300
(dp301
S'protocol'
p302
S'arduino'
p303
sS'maximum_size'
p304
S'30720'
p305
sS'speed'
p306
S'57600'
p307
ssS'name'
p308
S'Arduino Nano w/ ATmega328'
p309
saa(lp310
S'nano'
p311
a(dp312
S'build'
p313
(dp314
S'core'
p315
S'arduino'
p316
sS'mcu'
p317
S'atmega168'
p318
sS'f_cpu'
p319
S'16000000L'
p320
sS'variant'
p321
S'eightanaloginputs'
p322
ssS'bootloader'
p323
(dp324
S'extended_fuses'
p325
S'0x00'
p326
sS'high_fuses'
p327
S'0xdd'
p328
sS'low_fuses'
p329
S'0xff'
p330
sS'lock_bits'
p331
S'0x0F'
p332
sS'file'
p333
S'ATmegaBOOT_168_diecimila.hex'
p334
sS'path'
p335
S'atmega'
p336
sS'unlock_bits'
p337
S'0x3F'
p338
ssS'upload'
p339
(dp340
S'protocol'
p341
S'arduino'
p342
sS'maximum_size'
p343
S'14336'
p344
sS'speed'
p345
S'19200'
p346
ssS'name'
p347
S'Arduino Nano w/ ATmega168'
p348
saa(lp349
S'mega2560'
p350
a(dp351
S'build'
p352
(dp353
S'core'
p354
S'arduino'
p355
sS'mcu'
p356
S'atmega2560'
p357
sS'f_cpu'
p358
S'16000000L'
p359
sS'variant'
p360
S'mega'
p361
ssS'bootloader'
p362
(dp363
S'extended_fuses'
p364
S'0xFD'
p365
sS'high_fuses'
p366
S'0xD8'
p367
sS'low_fuses'
p368
S'0xFF'
p369
sS'lock_bits'
p370
S'0x0F'
p371
sS'file'
p372
S'stk500boot_v2_mega2560.hex'
p373
sS'path'
p374
S'stk500v2'
p375
sS'unlock_bits'
p376
S'0x3F'
p377
ssS'upload'
p378
(dp379
S'protocol'
p380
S'stk500v2'
p381
sS'maximum_size'
p382
S'258048'
p383
sS'speed'
p384
S'115200'
p385
ssS'name'
p386
S'Arduino Mega 2560 or Mega ADK'
p387
saa(lp388
S'mega'
p389
a(dp390
S'build'
p391
(dp392
S'core'
p393
S'arduino'
p394
sS'mcu'
p395
S'atmega1280'
p396
sS'f_cpu'
p397
S'16000000L'
p398
sS'variant'
p399
S'mega'
p400
ssS'bootloader'
p401
(dp402
S'extended_fuses'
p403
S'0xF5'
p404
sS'high_fuses'
p405
S'0xDA'
p406
sS'low_fuses'
p407
S'0xFF'
p408
sS'lock_bits'
p409
S'0x0F'
p410
sS'file'
p411
S'ATmegaBOOT_168_atmega1280.hex'
p412
sS'path'
p413
S'atmega'
p414
sS'unlock_bits'
p415
S'0x3F'
p416
ssS'upload'
p417
(dp418
S'protocol'
p419
S'arduino'
p420
sS'maximum_size'
p421
S'126976'
p422
sS'speed'
p423
S'57600'
p424
ssS'name'
p425
S'Arduino Mega (ATmega1280)'
p426
saa(lp427
S'mini328'
p428
a(dp429
S'build'
p430
(dp431
S'core'
p432
S'arduino'
p433
sS'mcu'
p434
S'atmega328p'
p435
sS'f_cpu'
p436
S'16000000L'
p437
sS'variant'
p438
S'eightanaloginputs'
p439
ssS'bootloader'
p440
(dp441
S'extended_fuses'
p442
S'0x05'
p443
sS'high_fuses'
p444
S'0xd8'
p445
sS'low_fuses'
p446
S'0xff'
p447
sS'lock_bits'
p448
S'0x0F'
p449
sS'file'
p450
S'optiboot_atmega328-Mini.hex'
p451
sS'path'
p452
S'optiboot'
p453
sS'unlock_bits'
p454
S'0x3F'
p455
ssS'upload'
p456
(dp457
S'protocol'
p458
S'stk500'
p459
sS'maximum_size'
p460
S'28672'
p461
sS'speed'
p462
S'115200'
p463
ssS'name'
p464
S'Arduino Mini w/ ATmega328'
p465
saa(lp466
S'mini'
p467
a(dp468
S'build'
p469
(dp470
S'core'
p471
S'arduino'
p472
sS'mcu'
p473
S'atmega168'
p474
sS'f_cpu'
p475
S'16000000L'
p476
sS'variant'
p477
S'eightanaloginputs'
p478
ssS'bootloader'
p479
(dp480
S'extended_fuses'
p481
S'0x00'
p482
sS'high_fuses'
p483
S'0xdd'
p484
sS'low_fuses'
p485
S'0xff'
p486
sS'lock_bits'
p487
S'0x0F'
p488
sS'file'
p489
S'ATmegaBOOT_168_ng.hex'
p490
sS'path'
p491
S'atmega'
p492
sS'unlock_bits'
p493
S'0x3F'
p494
ssS'upload'
p495
(dp496
S'protocol'
p497
S'arduino'
p498
sS'maximum_size'
p499
S'14336'
p500
sS'speed'
p501
S'19200'
p502
ssS'name'
p503
S'Arduino Mini w/ ATmega168'
p504
saa(lp505
S'ethernet'
p506
a(dp507
S'build'
p508
(dp509
S'variant'
p510
S'standard'
p511
sS'mcu'
p512
S'atmega328p'
p513
sS'f_cpu'
p514
S'16000000L'
p515
sS'core'
p516
S'arduino'
p517
ssS'bootloader'
p518
(dp519
S'extended_fuses'
p520
S'0x05'
p521
sS'high_fuses'
p522
S'0xde'
p523
sS'low_fuses'
p524
S'0xff'
p525
sS'lock_bits'
p526
S'0x0F'
p527
sS'file'
p528
S'optiboot_atmega328.hex'
p529
sS'path'
p530
S'optiboot'
p531
sS'unlock_bits'
p532
S'0x3F'
p533
ssS'upload'
p534
(dp535
S'protocol'
p536
S'arduino'
p537
sS'maximum_size'
p538
S'32256'
p539
sS'speed'
p540
S'115200'
p541
ssS'name'
p542
S'Arduino Ethernet'
p543
saa(lp544
S'fio'
p545
a(dp546
S'build'
p547
(dp548
S'core'
p549
S'arduino'
p550
sS'mcu'
p551
S'atmega328p'
p552
sS'f_cpu'
p553
S'8000000L'
p554
sS'variant'
p555
S'eightanaloginputs'
p556
ssS'bootloader'
p557
(dp558
S'extended_fuses'
p559
S'0x05'
p560
sS'high_fuses'
p561
S'0xDA'
p562
sS'low_fuses'
p563
S'0xFF'
p564
sS'lock_bits'
p565
S'0x0F'
p566
sS'file'
p567
S'ATmegaBOOT_168_atmega328_pro_8MHz.hex'
p568
sS'path'
p569
S'arduino:atmega'
p570
sS'unlock_bits'
p571
S'0x3F'
p572
ssS'upload'
p573
(dp574
S'protocol'
p575
S'arduino'
p576
sS'maximum_size'
p577
S'30720'
p578
sS'speed'
p579
S'57600'
p580
ssS'name'
p581
S'Arduino Fio'
p582
saa(lp583
S'bt328'
p584
a(dp585
S'build'
p586
(dp587
S'core'
p588
S'arduino'
p589
sS'mcu'
p590
S'atmega328p'
p591
sS'f_cpu'
p592
S'16000000L'
p593
sS'variant'
p594
S'eightanaloginputs'
p595
ssS'bootloader'
p596
(dp597
S'extended_fuses'
p598
S'0x05'
p599
sS'high_fuses'
p600
S'0xd8'
p601
sS'low_fuses'
p602
S'0xff'
p603
sS'lock_bits'
p604
S'0x0F'
p605
sS'file'
p606
S'ATmegaBOOT_168_atmega328_bt.hex'
p607
sS'path'
p608
S'bt'
p609
sS'unlock_bits'
p610
S'0x3F'
p611
ssS'upload'
p612
(dp613
S'protocol'
p614
S'arduino'
p615
sS'maximum_size'
p616
S'28672'
p617
sS'speed'
p618
S'19200'
p619
sS'disable_flushing'
p620
S'true'
p621
ssS'name'
p622
S'Arduino BT w/ ATmega328'
p623
saa(lp624
S'bt'
p625
a(dp626
S'build'
p627
(dp628
S'core'
p629
S'arduino'
p630
sS'mcu'
p631
S'atmega168'
p632
sS'f_cpu'
p633
S'16000000L'
p634
sS'variant'
p635
S'eightanaloginputs'
p636
ssS'bootloader'
p637
(dp638
S'extended_fuses'
p639
S'0x00'
p640
sS'high_fuses'
p641
S'0xdd'
p642
sS'low_fuses'
p643
S'0xff'
p644
sS'lock_bits'
p645
S'0x0F'
p646
sS'file'
p647
S'ATmegaBOOT_168.hex'
p648
sS'path'
p649
S'bt'
p650
sS'unlock_bits'
p651
S'0x3F'
p652
ssS'upload'
p653
(dp654
S'protocol'
p655
S'arduino'
p656
sS'maximum_size'
p657
S'14336'
p658
sS'speed'
p659
S'19200'
p660
sS'disable_flushing'
p661
S'true'
p662
ssS'name'
p663
S'Arduino BT w/ ATmega168'
p664
saa(lp665
S'lilypad328'
p666
a(dp667
S'build'
p668
(dp669
S'core'
p670
S'arduino'
p671
sS'mcu'
p672
S'atmega328p'
p673
sS'f_cpu'
p674
S'8000000L'
p675
sS'variant'
p676
S'standard'
p677
ssS'bootloader'
p678
(dp679
S'extended_fuses'
p680
S'0x05'
p681
sS'high_fuses'
p682
S'0xDA'
p683
sS'low_fuses'
p684
S'0xFF'
p685
sS'lock_bits'
p686
S'0x0F'
p687
sS'file'
p688
S'ATmegaBOOT_168_atmega328_pro_8MHz.hex'
p689
sS'path'
p690
S'atmega'
p691
sS'unlock_bits'
p692
S'0x3F'
p693
ssS'upload'
p694
(dp695
S'protocol'
p696
S'arduino'
p697
sS'maximum_size'
p698
S'30720'
p699
sS'speed'
p700
S'57600'
p701
ssS'name'
p702
S'LilyPad Arduino w/ ATmega328'
p703
saa(lp704
S'lilypad'
p705
a(dp706
S'build'
p707
(dp708
S'core'
p709
S'arduino'
p710
sS'mcu'
p711
S'atmega168'
p712
sS'f_cpu'
p713
S'8000000L'
p714
sS'variant'
p715
S'standard'
p716
ssS'bootloader'
p717
(dp718
S'extended_fuses'
p719
S'0x00'
p720
sS'high_fuses'
p721
S'0xdd'
p722
sS'low_fuses'
p723
S'0xe2'
p724
sS'lock_bits'
p725
S'0x0F'
p726
sS'file'
p727
S'LilyPadBOOT_168.hex'
p728
sS'path'
p729
S'lilypad'
p730
sS'unlock_bits'
p731
S'0x3F'
p732
ssS'upload'
p733
(dp734
S'protocol'
p735
S'arduino'
p736
sS'maximum_size'
p737
S'14336'
p738
sS'speed'
p739
S'19200'
p740
ssS'name'
p741
S'LilyPad Arduino w/ ATmega168'
p742
saa(lp743
S'pro5v328'
p744
a(dp745
S'build'
p746
(dp747
S'core'
p748
S'arduino'
p749
sS'mcu'
p750
S'atmega328p'
p751
sS'f_cpu'
p752
S'16000000L'
p753
sS'variant'
p754
S'standard'
p755
ssS'bootloader'
p756
(dp757
S'extended_fuses'
p758
S'0x05'
p759
sS'high_fuses'
p760
S'0xDA'
p761
sS'low_fuses'
p762
S'0xFF'
p763
sS'lock_bits'
p764
S'0x0F'
p765
sS'file'
p766
S'ATmegaBOOT_168_atmega328.hex'
p767
sS'path'
p768
S'atmega'
p769
sS'unlock_bits'
p770
S'0x3F'
p771
ssS'upload'
p772
(dp773
S'protocol'
p774
S'arduino'
p775
sS'maximum_size'
p776
S'30720'
p777
sS'speed'
p778
S'57600'
p779
ssS'name'
p780
S'Arduino Pro or Pro Mini (5V, 16 MHz) w/ ATmega328'
p781
saa(lp782
S'pro5v'
p783
a(dp784
S'build'
p785
(dp786
S'core'
p787
S'arduino'
p788
sS'mcu'
p789
S'atmega168'
p790
sS'f_cpu'
p791
S'16000000L'
p792
sS'variant'
p793
S'standard'
p794
ssS'bootloader'
p795
(dp796
S'extended_fuses'
p797
S'0x00'
p798
sS'high_fuses'
p799
S'0xdd'
p800
sS'low_fuses'
p801
S'0xff'
p802
sS'lock_bits'
p803
S'0x0F'
p804
sS'file'
p805
S'ATmegaBOOT_168_diecimila.hex'
p806
sS'path'
p807
S'atmega'
p808
sS'unlock_bits'
p809
S'0x3F'
p810
ssS'upload'
p811
(dp812
S'protocol'
p813
S'arduino'
p814
sS'maximum_size'
p815
S'14336'
p816
sS'speed'
p817
S'19200'
p818
ssS'name'
p819
S'Arduino Pro or Pro Mini (5V, 16 MHz) w/ ATmega168'
p820
saa(lp821
S'pro328'
p822
a(dp823
S'build'
p824
(dp825
S'core'
p826
S'arduino'
p827
sS'mcu'
p828
S'atmega328p'
p829
sS'f_cpu'
p830
S'8000000L'
p831
sS'variant'
p832
S'standard'
p833
ssS'bootloader'
p834
(dp835
S'extended_fuses'
p836
S'0x05'
p837
sS'high_fuses'
p838
S'0xDA'
p839
sS'low_fuses'
p840
S'0xFF'
p841
sS'lock_bits'
p842
S'0x0F'
p843
sS'file'
p844
S'ATmegaBOOT_168_atmega328_pro_8MHz.hex'
p845
sS'path'
p846
S'atmega'
p847
sS'unlock_bits'
p848
S'0x3F'
p849
ssS'upload'
p850
(dp851
S'protocol'
p852
S'arduino'
p853
sS'maximum_size'
p854
S'30720'
p855
sS'speed'
p856
S'57600'
p857
ssS'name'
p858
S'Arduino Pro or Pro Mini (3.3V, 8 MHz) w/ ATmega328'
p859
saa(lp860
S'pro'
p861
a(dp862
S'build'
p863
(dp864
S'core'
p865
S'arduino'
p866
sS'mcu'
p867
S'atmega168'
p868
sS'f_cpu'
p869
S'8000000L'
p870
sS'variant'
p871
S'standard'
p872
ssS'bootloader'
p873
(dp874
S'extended_fuses'
p875
S'0x00'
p876
sS'high_fuses'
p877
S'0xdd'
p878
sS'low_fuses'
p879
S'0xc6'
p880
sS'lock_bits'
p881
S'0x0F'
p882
sS'file'
p883
S'ATmegaBOOT_168_pro_8MHz.hex'
p884
sS'path'
p885
S'atmega'
p886
sS'unlock_bits'
p887
S'0x3F'
p888
ssS'upload'
p889
(dp890
S'protocol'
p891
S'arduino'
p892
sS'maximum_size'
p893
S'14336'
p894
sS'speed'
p895
S'19200'
p896
ssS'name'
p897
S'Arduino Pro or Pro Mini (3.3V, 8 MHz) w/ ATmega168'
p898
saa(lp899
S'atmega168'
p900
a(dp901
S'build'
p902
(dp903
S'core'
p904
S'arduino'
p905
sS'mcu'
p906
S'atmega168'
p907
sS'f_cpu'
p908
S'16000000L'
p909
sS'variant'
p910
S'standard'
p911
ssS'bootloader'
p912
(dp913
S'extended_fuses'
p914
S'0x00'
p915
sS'high_fuses'
p916
S'0xdd'
p917
sS'low_fuses'
p918
S'0xff'
p919
sS'lock_bits'
p920
S'0x0F'
p921
sS'file'
p922
S'ATmegaBOOT_168_ng.hex'
p923
sS'path'
p924
S'atmega'
p925
sS'unlock_bits'
p926
S'0x3F'
p927
ssS'upload'
p928
(dp929
S'protocol'
p930
S'arduino'
p931
sS'maximum_size'
p932
S'14336'
p933
sS'speed'
p934
S'19200'
p935
ssS'name'
p936
S'Arduino NG or older w/ ATmega168'
p937
saa(lp938
S'atmega8'
p939
a(dp940
S'build'
p941
(dp942
S'core'
p943
S'arduino'
p944
sS'mcu'
p945
S'atmega8'
p946
sS'f_cpu'
p947
S'16000000L'
p948
sS'variant'
p949
S'standard'
p950
ssS'bootloader'
p951
(dp952
S'high_fuses'
p953
S'0xca'
p954
sS'low_fuses'
p955
S'0xdf'
p956
sS'lock_bits'
p957
S'0x0F'
p958
sS'file'
p959
S'ATmegaBOOT.hex'
p960
sS'path'
p961
S'atmega8'
p962
sS'unlock_bits'
p963
S'0x3F'
p964
ssS'upload'
p965
(dp966
S'protocol'
p967
S'arduino'
p968
sS'maximum_size'
p969
S'7168'
p970
sS'speed'
p971
S'19200'
p972
ssS'name'
p973
S'Arduino NG or older w/ ATmega8'
p974
saatp975
Rp976
(dp977
S'default'
p978
S'uno'
p979
sbtp980
a(S'cxx'
p981
S'/usr/bin/avr-g++'
p982
tp983
a.