(lp0
(S'elfflags'
p1
ccopy_reg
_reconstructor
p2
(cino.utils
SpaceList
p3
c__builtin__
list
p4
(lp5
S'-Os'
p6
aS'-Wl,--gc-sections'
p7
aS'-mmcu=atmega328p'
p8
atp9
Rp10
tp11
a(S'version.txt'
p12
S'/usr/share/arduino/lib/version.txt'
p13
tp14
a(S'used_libs'
p15
(lp16
S'lib/ros_lib'
p17
aS'/usr/share/arduino/hardware/arduino/cores/arduino'
p18
atp19
a(S'cc'
p20
S'/usr/bin/avr-gcc'
p21
tp22
a(S'stty'
p23
S'/bin/stty'
p24
tp25
a(S'cflags'
p26
g2
(g3
g4
(lp27
g8
aS'-ffunction-sections'
p28
aS'-fdata-sections'
p29
aS'-g'
p30
ag6
aS'-w'
p31
aS'-DF_CPU=16000000L'
p32
aS'-DARDUINO=100'
p33
aS'-I/usr/share/arduino/hardware/arduino/cores/arduino'
p34
aS'-I/usr/share/arduino/hardware/arduino/variants/standard'
p35
aS'-Ilib/ros_lib'
p36
aS'-Ilib/ros_lib/diagnostic_msgs'
p37
aS'-Ilib/ros_lib/ros'
p38
aS'-Ilib/ros_lib/std_msgs'
p39
aS'-Ilib/ros_lib/tf'
p40
aS'-Ilib/ros_lib/nav_msgs'
p41
aS'-Ilib/ros_lib/rosserial_arduino'
p42
aS'-Ilib/ros_lib/rosserial_msgs'
p43
aS'-Ilib/ros_lib/tests'
p44
aS'-Ilib/ros_lib/sensor_msgs'
p45
aS'-Ilib/ros_lib/geometry_msgs'
p46
aS'-Ilib/ros_lib/tests/time_test'
p47
aS'-Ilib/ros_lib/tests/array_test'
p48
aS'-Ilib/ros_lib/tests/float64_test'
p49
aS'-I/usr/share/arduino/hardware/arduino/cores/arduino'
p50
atp51
Rp52
tp53
a(S'avrdude.conf'
p54
S'/usr/share/arduino/hardware/tools/avrdude.conf'
p55
tp56
a(S'build_dir'
p57
S'.build/uno'
p58
tp59
a(S'arduino_core_dir'
p60
g18
tp61
a(S'boards.txt'
p62
S'/usr/share/arduino/hardware/arduino/boards.txt'
p63
tp64
a(S'cxxflags'
p65
g2
(g3
g4
(lp66
S'-fno-exceptions'
p67
atp68
Rp69
tp70
a(S'arduino_variants_dir'
p71
S'/usr/share/arduino/hardware/arduino/variants'
p72
tp73
a(S'avrdude'
p74
S'/usr/share/arduino/hardware/tools/avrdude'
p75
tp76
a(S'ar'
p77
S'/usr/bin/avr-ar'
p78
tp79
a(S'names'
p80
(dp81
S'cpp'
p82
S'%s.cpp'
p83
sS'obj'
p84
S'%s.o'
p85
sS'lib'
p86
S'lib%s.a'
p87
sS'deps'
p88
S'%s.d'
p89
stp90
a(g88
g2
(g3
g4
(lp91
S'.build/uno/src/dependencies.d'
p92
aS'.build/uno/arduino/dependencies.d'
p93
aS'.build/uno/ros_lib/dependencies.d'
p94
atp95
Rp96
tp97
a(S'arduino_libraries_dir'
p98
S'/usr/share/arduino/libraries'
p99
tp100
a(S'arduino_lib_version'
p101
g2
(cino.environment
Version
p102
c__builtin__
tuple
p103
(I1
I0
tp104
tp105
Rp106
tp107
a(S'objcopy'
p108
S'/usr/bin/avr-objcopy'
p109
tp110
a(S'board_models'
p111
cino.environment
BoardModels
p112
((lp113
(lp114
S'uno'
p115
a(dp116
S'bootloader'
p117
(dp118
S'extended_fuses'
p119
S'0x05'
p120
sS'high_fuses'
p121
S'0xde'
p122
sS'low_fuses'
p123
S'0xff'
p124
sS'lock_bits'
p125
S'0x0F'
p126
sS'file'
p127
S'optiboot_atmega328.hex'
p128
sS'path'
p129
S'optiboot'
p130
sS'unlock_bits'
p131
S'0x3F'
p132
ssS'upload'
p133
(dp134
S'protocol'
p135
S'arduino'
p136
sS'maximum_size'
p137
S'32256'
p138
sS'speed'
p139
S'115200'
p140
ssS'build'
p141
(dp142
S'core'
p143
S'arduino'
p144
sS'mcu'
p145
S'atmega328p'
p146
sS'f_cpu'
p147
S'16000000L'
p148
sS'variant'
p149
S'standard'
p150
ssS'name'
p151
S'Arduino Uno'
p152
saa(lp153
S'alamode'
p154
a(dp155
S'bootloader'
p156
(dp157
S'extended_fuses'
p158
S'0x05'
p159
sS'high_fuses'
p160
S'0xde'
p161
sS'low_fuses'
p162
S'0xff'
p163
sS'lock_bits'
p164
S'0x0F'
p165
sS'file'
p166
S'optiboot_atmega328.hex'
p167
sS'path'
p168
S'optiboot'
p169
sS'unlock_bits'
p170
S'0x3F'
p171
ssS'upload'
p172
(dp173
S'protocol'
p174
S'alamode'
p175
sS'maximum_size'
p176
S'32256'
p177
sS'speed'
p178
S'115200'
p179
ssS'build'
p180
(dp181
S'core'
p182
S'arduino'
p183
sS'mcu'
p184
S'atmega328p'
p185
sS'f_cpu'
p186
S'16000000L'
p187
sS'variant'
p188
S'standard'
p189
ssS'name'
p190
S'AlaMode'
p191
saa(lp192
S'atmega328'
p193
a(dp194
S'bootloader'
p195
(dp196
S'extended_fuses'
p197
S'0x05'
p198
sS'high_fuses'
p199
S'0xDA'
p200
sS'low_fuses'
p201
S'0xFF'
p202
sS'lock_bits'
p203
S'0x0F'
p204
sS'file'
p205
S'ATmegaBOOT_168_atmega328.hex'
p206
sS'path'
p207
S'atmega'
p208
sS'unlock_bits'
p209
S'0x3F'
p210
ssS'upload'
p211
(dp212
S'protocol'
p213
S'arduino'
p214
sS'maximum_size'
p215
S'30720'
p216
sS'speed'
p217
S'57600'
p218
ssS'build'
p219
(dp220
S'core'
p221
S'arduino'
p222
sS'mcu'
p223
S'atmega328p'
p224
sS'f_cpu'
p225
S'16000000L'
p226
sS'variant'
p227
S'standard'
p228
ssS'name'
p229
S'Arduino Duemilanove w/ ATmega328'
p230
saa(lp231
S'diecimila'
p232
a(dp233
S'bootloader'
p234
(dp235
S'extended_fuses'
p236
S'0x00'
p237
sS'high_fuses'
p238
S'0xdd'
p239
sS'low_fuses'
p240
S'0xff'
p241
sS'lock_bits'
p242
S'0x0F'
p243
sS'file'
p244
S'ATmegaBOOT_168_diecimila.hex'
p245
sS'path'
p246
S'atmega'
p247
sS'unlock_bits'
p248
S'0x3F'
p249
ssS'upload'
p250
(dp251
S'protocol'
p252
S'arduino'
p253
sS'maximum_size'
p254
S'14336'
p255
sS'speed'
p256
S'19200'
p257
ssS'build'
p258
(dp259
S'core'
p260
S'arduino'
p261
sS'mcu'
p262
S'atmega168'
p263
sS'f_cpu'
p264
S'16000000L'
p265
sS'variant'
p266
S'standard'
p267
ssS'name'
p268
S'Arduino Diecimila or Duemilanove w/ ATmega168'
p269
saa(lp270
S'nano328'
p271
a(dp272
S'bootloader'
p273
(dp274
S'extended_fuses'
p275
S'0x05'
p276
sS'high_fuses'
p277
S'0xDA'
p278
sS'low_fuses'
p279
S'0xFF'
p280
sS'lock_bits'
p281
S'0x0F'
p282
sS'file'
p283
S'ATmegaBOOT_168_atmega328.hex'
p284
sS'path'
p285
S'atmega'
p286
sS'unlock_bits'
p287
S'0x3F'
p288
ssS'upload'
p289
(dp290
S'protocol'
p291
S'arduino'
p292
sS'maximum_size'
p293
S'30720'
p294
sS'speed'
p295
S'57600'
p296
ssS'build'
p297
(dp298
S'core'
p299
S'arduino'
p300
sS'mcu'
p301
S'atmega328p'
p302
sS'f_cpu'
p303
S'16000000L'
p304
sS'variant'
p305
S'eightanaloginputs'
p306
ssS'name'
p307
S'Arduino Nano w/ ATmega328'
p308
saa(lp309
S'nano'
p310
a(dp311
S'bootloader'
p312
(dp313
S'extended_fuses'
p314
S'0x00'
p315
sS'high_fuses'
p316
S'0xdd'
p317
sS'low_fuses'
p318
S'0xff'
p319
sS'lock_bits'
p320
S'0x0F'
p321
sS'file'
p322
S'ATmegaBOOT_168_diecimila.hex'
p323
sS'path'
p324
S'atmega'
p325
sS'unlock_bits'
p326
S'0x3F'
p327
ssS'upload'
p328
(dp329
S'protocol'
p330
S'arduino'
p331
sS'maximum_size'
p332
S'14336'
p333
sS'speed'
p334
S'19200'
p335
ssS'build'
p336
(dp337
S'core'
p338
S'arduino'
p339
sS'mcu'
p340
S'atmega168'
p341
sS'f_cpu'
p342
S'16000000L'
p343
sS'variant'
p344
S'eightanaloginputs'
p345
ssS'name'
p346
S'Arduino Nano w/ ATmega168'
p347
saa(lp348
S'mega2560'
p349
a(dp350
S'bootloader'
p351
(dp352
S'extended_fuses'
p353
S'0xFD'
p354
sS'high_fuses'
p355
S'0xD8'
p356
sS'low_fuses'
p357
S'0xFF'
p358
sS'lock_bits'
p359
S'0x0F'
p360
sS'file'
p361
S'stk500boot_v2_mega2560.hex'
p362
sS'path'
p363
S'stk500v2'
p364
sS'unlock_bits'
p365
S'0x3F'
p366
ssS'upload'
p367
(dp368
S'protocol'
p369
S'stk500v2'
p370
sS'maximum_size'
p371
S'258048'
p372
sS'speed'
p373
S'115200'
p374
ssS'build'
p375
(dp376
S'core'
p377
S'arduino'
p378
sS'mcu'
p379
S'atmega2560'
p380
sS'f_cpu'
p381
S'16000000L'
p382
sS'variant'
p383
S'mega'
p384
ssS'name'
p385
S'Arduino Mega 2560 or Mega ADK'
p386
saa(lp387
S'mega'
p388
a(dp389
S'bootloader'
p390
(dp391
S'extended_fuses'
p392
S'0xF5'
p393
sS'high_fuses'
p394
S'0xDA'
p395
sS'low_fuses'
p396
S'0xFF'
p397
sS'lock_bits'
p398
S'0x0F'
p399
sS'file'
p400
S'ATmegaBOOT_168_atmega1280.hex'
p401
sS'path'
p402
S'atmega'
p403
sS'unlock_bits'
p404
S'0x3F'
p405
ssS'upload'
p406
(dp407
S'protocol'
p408
S'arduino'
p409
sS'maximum_size'
p410
S'126976'
p411
sS'speed'
p412
S'57600'
p413
ssS'build'
p414
(dp415
S'core'
p416
S'arduino'
p417
sS'mcu'
p418
S'atmega1280'
p419
sS'f_cpu'
p420
S'16000000L'
p421
sS'variant'
p422
S'mega'
p423
ssS'name'
p424
S'Arduino Mega (ATmega1280)'
p425
saa(lp426
S'mini328'
p427
a(dp428
S'bootloader'
p429
(dp430
S'extended_fuses'
p431
S'0x05'
p432
sS'high_fuses'
p433
S'0xd8'
p434
sS'low_fuses'
p435
S'0xff'
p436
sS'lock_bits'
p437
S'0x0F'
p438
sS'file'
p439
S'optiboot_atmega328-Mini.hex'
p440
sS'path'
p441
S'optiboot'
p442
sS'unlock_bits'
p443
S'0x3F'
p444
ssS'upload'
p445
(dp446
S'protocol'
p447
S'stk500'
p448
sS'maximum_size'
p449
S'28672'
p450
sS'speed'
p451
S'115200'
p452
ssS'build'
p453
(dp454
S'core'
p455
S'arduino'
p456
sS'mcu'
p457
S'atmega328p'
p458
sS'f_cpu'
p459
S'16000000L'
p460
sS'variant'
p461
S'eightanaloginputs'
p462
ssS'name'
p463
S'Arduino Mini w/ ATmega328'
p464
saa(lp465
S'mini'
p466
a(dp467
S'bootloader'
p468
(dp469
S'extended_fuses'
p470
S'0x00'
p471
sS'high_fuses'
p472
S'0xdd'
p473
sS'low_fuses'
p474
S'0xff'
p475
sS'lock_bits'
p476
S'0x0F'
p477
sS'file'
p478
S'ATmegaBOOT_168_ng.hex'
p479
sS'path'
p480
S'atmega'
p481
sS'unlock_bits'
p482
S'0x3F'
p483
ssS'upload'
p484
(dp485
S'protocol'
p486
S'arduino'
p487
sS'maximum_size'
p488
S'14336'
p489
sS'speed'
p490
S'19200'
p491
ssS'build'
p492
(dp493
S'core'
p494
S'arduino'
p495
sS'mcu'
p496
S'atmega168'
p497
sS'f_cpu'
p498
S'16000000L'
p499
sS'variant'
p500
S'eightanaloginputs'
p501
ssS'name'
p502
S'Arduino Mini w/ ATmega168'
p503
saa(lp504
S'ethernet'
p505
a(dp506
S'bootloader'
p507
(dp508
S'extended_fuses'
p509
S'0x05'
p510
sS'high_fuses'
p511
S'0xde'
p512
sS'low_fuses'
p513
S'0xff'
p514
sS'lock_bits'
p515
S'0x0F'
p516
sS'file'
p517
S'optiboot_atmega328.hex'
p518
sS'path'
p519
S'optiboot'
p520
sS'unlock_bits'
p521
S'0x3F'
p522
ssS'upload'
p523
(dp524
S'protocol'
p525
S'arduino'
p526
sS'maximum_size'
p527
S'32256'
p528
sS'speed'
p529
S'115200'
p530
ssS'build'
p531
(dp532
S'variant'
p533
S'standard'
p534
sS'mcu'
p535
S'atmega328p'
p536
sS'f_cpu'
p537
S'16000000L'
p538
sS'core'
p539
S'arduino'
p540
ssS'name'
p541
S'Arduino Ethernet'
p542
saa(lp543
S'fio'
p544
a(dp545
S'bootloader'
p546
(dp547
S'extended_fuses'
p548
S'0x05'
p549
sS'high_fuses'
p550
S'0xDA'
p551
sS'low_fuses'
p552
S'0xFF'
p553
sS'lock_bits'
p554
S'0x0F'
p555
sS'file'
p556
S'ATmegaBOOT_168_atmega328_pro_8MHz.hex'
p557
sS'path'
p558
S'arduino:atmega'
p559
sS'unlock_bits'
p560
S'0x3F'
p561
ssS'upload'
p562
(dp563
S'protocol'
p564
S'arduino'
p565
sS'maximum_size'
p566
S'30720'
p567
sS'speed'
p568
S'57600'
p569
ssS'build'
p570
(dp571
S'core'
p572
S'arduino'
p573
sS'mcu'
p574
S'atmega328p'
p575
sS'f_cpu'
p576
S'8000000L'
p577
sS'variant'
p578
S'eightanaloginputs'
p579
ssS'name'
p580
S'Arduino Fio'
p581
saa(lp582
S'bt328'
p583
a(dp584
S'bootloader'
p585
(dp586
S'extended_fuses'
p587
S'0x05'
p588
sS'high_fuses'
p589
S'0xd8'
p590
sS'low_fuses'
p591
S'0xff'
p592
sS'lock_bits'
p593
S'0x0F'
p594
sS'file'
p595
S'ATmegaBOOT_168_atmega328_bt.hex'
p596
sS'path'
p597
S'bt'
p598
sS'unlock_bits'
p599
S'0x3F'
p600
ssS'upload'
p601
(dp602
S'protocol'
p603
S'arduino'
p604
sS'maximum_size'
p605
S'28672'
p606
sS'speed'
p607
S'19200'
p608
sS'disable_flushing'
p609
S'true'
p610
ssS'build'
p611
(dp612
S'core'
p613
S'arduino'
p614
sS'mcu'
p615
S'atmega328p'
p616
sS'f_cpu'
p617
S'16000000L'
p618
sS'variant'
p619
S'eightanaloginputs'
p620
ssS'name'
p621
S'Arduino BT w/ ATmega328'
p622
saa(lp623
S'bt'
p624
a(dp625
S'bootloader'
p626
(dp627
S'extended_fuses'
p628
S'0x00'
p629
sS'high_fuses'
p630
S'0xdd'
p631
sS'low_fuses'
p632
S'0xff'
p633
sS'lock_bits'
p634
S'0x0F'
p635
sS'file'
p636
S'ATmegaBOOT_168.hex'
p637
sS'path'
p638
S'bt'
p639
sS'unlock_bits'
p640
S'0x3F'
p641
ssS'upload'
p642
(dp643
S'protocol'
p644
S'arduino'
p645
sS'maximum_size'
p646
S'14336'
p647
sS'speed'
p648
S'19200'
p649
sS'disable_flushing'
p650
S'true'
p651
ssS'build'
p652
(dp653
S'core'
p654
S'arduino'
p655
sS'mcu'
p656
S'atmega168'
p657
sS'f_cpu'
p658
S'16000000L'
p659
sS'variant'
p660
S'eightanaloginputs'
p661
ssS'name'
p662
S'Arduino BT w/ ATmega168'
p663
saa(lp664
S'lilypad328'
p665
a(dp666
S'bootloader'
p667
(dp668
S'extended_fuses'
p669
S'0x05'
p670
sS'high_fuses'
p671
S'0xDA'
p672
sS'low_fuses'
p673
S'0xFF'
p674
sS'lock_bits'
p675
S'0x0F'
p676
sS'file'
p677
S'ATmegaBOOT_168_atmega328_pro_8MHz.hex'
p678
sS'path'
p679
S'atmega'
p680
sS'unlock_bits'
p681
S'0x3F'
p682
ssS'upload'
p683
(dp684
S'protocol'
p685
S'arduino'
p686
sS'maximum_size'
p687
S'30720'
p688
sS'speed'
p689
S'57600'
p690
ssS'build'
p691
(dp692
S'core'
p693
S'arduino'
p694
sS'mcu'
p695
S'atmega328p'
p696
sS'f_cpu'
p697
S'8000000L'
p698
sS'variant'
p699
S'standard'
p700
ssS'name'
p701
S'LilyPad Arduino w/ ATmega328'
p702
saa(lp703
S'lilypad'
p704
a(dp705
S'bootloader'
p706
(dp707
S'extended_fuses'
p708
S'0x00'
p709
sS'high_fuses'
p710
S'0xdd'
p711
sS'low_fuses'
p712
S'0xe2'
p713
sS'lock_bits'
p714
S'0x0F'
p715
sS'file'
p716
S'LilyPadBOOT_168.hex'
p717
sS'path'
p718
S'lilypad'
p719
sS'unlock_bits'
p720
S'0x3F'
p721
ssS'upload'
p722
(dp723
S'protocol'
p724
S'arduino'
p725
sS'maximum_size'
p726
S'14336'
p727
sS'speed'
p728
S'19200'
p729
ssS'build'
p730
(dp731
S'core'
p732
S'arduino'
p733
sS'mcu'
p734
S'atmega168'
p735
sS'f_cpu'
p736
S'8000000L'
p737
sS'variant'
p738
S'standard'
p739
ssS'name'
p740
S'LilyPad Arduino w/ ATmega168'
p741
saa(lp742
S'pro5v328'
p743
a(dp744
S'bootloader'
p745
(dp746
S'extended_fuses'
p747
S'0x05'
p748
sS'high_fuses'
p749
S'0xDA'
p750
sS'low_fuses'
p751
S'0xFF'
p752
sS'lock_bits'
p753
S'0x0F'
p754
sS'file'
p755
S'ATmegaBOOT_168_atmega328.hex'
p756
sS'path'
p757
S'atmega'
p758
sS'unlock_bits'
p759
S'0x3F'
p760
ssS'upload'
p761
(dp762
S'protocol'
p763
S'arduino'
p764
sS'maximum_size'
p765
S'30720'
p766
sS'speed'
p767
S'57600'
p768
ssS'build'
p769
(dp770
S'core'
p771
S'arduino'
p772
sS'mcu'
p773
S'atmega328p'
p774
sS'f_cpu'
p775
S'16000000L'
p776
sS'variant'
p777
S'standard'
p778
ssS'name'
p779
S'Arduino Pro or Pro Mini (5V, 16 MHz) w/ ATmega328'
p780
saa(lp781
S'pro5v'
p782
a(dp783
S'bootloader'
p784
(dp785
S'extended_fuses'
p786
S'0x00'
p787
sS'high_fuses'
p788
S'0xdd'
p789
sS'low_fuses'
p790
S'0xff'
p791
sS'lock_bits'
p792
S'0x0F'
p793
sS'file'
p794
S'ATmegaBOOT_168_diecimila.hex'
p795
sS'path'
p796
S'atmega'
p797
sS'unlock_bits'
p798
S'0x3F'
p799
ssS'upload'
p800
(dp801
S'protocol'
p802
S'arduino'
p803
sS'maximum_size'
p804
S'14336'
p805
sS'speed'
p806
S'19200'
p807
ssS'build'
p808
(dp809
S'core'
p810
S'arduino'
p811
sS'mcu'
p812
S'atmega168'
p813
sS'f_cpu'
p814
S'16000000L'
p815
sS'variant'
p816
S'standard'
p817
ssS'name'
p818
S'Arduino Pro or Pro Mini (5V, 16 MHz) w/ ATmega168'
p819
saa(lp820
S'pro328'
p821
a(dp822
S'bootloader'
p823
(dp824
S'extended_fuses'
p825
S'0x05'
p826
sS'high_fuses'
p827
S'0xDA'
p828
sS'low_fuses'
p829
S'0xFF'
p830
sS'lock_bits'
p831
S'0x0F'
p832
sS'file'
p833
S'ATmegaBOOT_168_atmega328_pro_8MHz.hex'
p834
sS'path'
p835
S'atmega'
p836
sS'unlock_bits'
p837
S'0x3F'
p838
ssS'upload'
p839
(dp840
S'protocol'
p841
S'arduino'
p842
sS'maximum_size'
p843
S'30720'
p844
sS'speed'
p845
S'57600'
p846
ssS'build'
p847
(dp848
S'core'
p849
S'arduino'
p850
sS'mcu'
p851
S'atmega328p'
p852
sS'f_cpu'
p853
S'8000000L'
p854
sS'variant'
p855
S'standard'
p856
ssS'name'
p857
S'Arduino Pro or Pro Mini (3.3V, 8 MHz) w/ ATmega328'
p858
saa(lp859
S'pro'
p860
a(dp861
S'bootloader'
p862
(dp863
S'extended_fuses'
p864
S'0x00'
p865
sS'high_fuses'
p866
S'0xdd'
p867
sS'low_fuses'
p868
S'0xc6'
p869
sS'lock_bits'
p870
S'0x0F'
p871
sS'file'
p872
S'ATmegaBOOT_168_pro_8MHz.hex'
p873
sS'path'
p874
S'atmega'
p875
sS'unlock_bits'
p876
S'0x3F'
p877
ssS'upload'
p878
(dp879
S'protocol'
p880
S'arduino'
p881
sS'maximum_size'
p882
S'14336'
p883
sS'speed'
p884
S'19200'
p885
ssS'build'
p886
(dp887
S'core'
p888
S'arduino'
p889
sS'mcu'
p890
S'atmega168'
p891
sS'f_cpu'
p892
S'8000000L'
p893
sS'variant'
p894
S'standard'
p895
ssS'name'
p896
S'Arduino Pro or Pro Mini (3.3V, 8 MHz) w/ ATmega168'
p897
saa(lp898
S'atmega168'
p899
a(dp900
S'bootloader'
p901
(dp902
S'extended_fuses'
p903
S'0x00'
p904
sS'high_fuses'
p905
S'0xdd'
p906
sS'low_fuses'
p907
S'0xff'
p908
sS'lock_bits'
p909
S'0x0F'
p910
sS'file'
p911
S'ATmegaBOOT_168_ng.hex'
p912
sS'path'
p913
S'atmega'
p914
sS'unlock_bits'
p915
S'0x3F'
p916
ssS'upload'
p917
(dp918
S'protocol'
p919
S'arduino'
p920
sS'maximum_size'
p921
S'14336'
p922
sS'speed'
p923
S'19200'
p924
ssS'build'
p925
(dp926
S'core'
p927
S'arduino'
p928
sS'mcu'
p929
S'atmega168'
p930
sS'f_cpu'
p931
S'16000000L'
p932
sS'variant'
p933
S'standard'
p934
ssS'name'
p935
S'Arduino NG or older w/ ATmega168'
p936
saa(lp937
S'atmega8'
p938
a(dp939
S'bootloader'
p940
(dp941
S'high_fuses'
p942
S'0xca'
p943
sS'low_fuses'
p944
S'0xdf'
p945
sS'lock_bits'
p946
S'0x0F'
p947
sS'file'
p948
S'ATmegaBOOT.hex'
p949
sS'path'
p950
S'atmega8'
p951
sS'unlock_bits'
p952
S'0x3F'
p953
ssS'upload'
p954
(dp955
S'protocol'
p956
S'arduino'
p957
sS'maximum_size'
p958
S'7168'
p959
sS'speed'
p960
S'19200'
p961
ssS'build'
p962
(dp963
S'core'
p964
S'arduino'
p965
sS'mcu'
p966
S'atmega8'
p967
sS'f_cpu'
p968
S'16000000L'
p969
sS'variant'
p970
S'standard'
p971
ssS'name'
p972
S'Arduino NG or older w/ ATmega8'
p973
saatp974
Rp975
(dp976
S'default'
p977
S'uno'
p978
sbtp979
a(S'cxx'
p980
S'/usr/bin/avr-g++'
p981
tp982
a.