(lp0
(S'stty'
p1
S'/bin/stty'
p2
tp3
a(S'version.txt'
p4
S'/usr/share/arduino/lib/version.txt'
p5
tp6
a(S'used_libs'
p7
(lp8
S'lib/ros_lib'
p9
aS'/usr/share/arduino/hardware/arduino/cores/arduino'
p10
atp11
a(S'cc'
p12
S'/usr/bin/avr-gcc'
p13
tp14
a(S'cflags'
p15
ccopy_reg
_reconstructor
p16
(cino.utils
SpaceList
p17
c__builtin__
list
p18
(lp19
S'-mmcu=atmega328p'
p20
aS'-ffunction-sections'
p21
aS'-fdata-sections'
p22
aS'-g'
p23
aS'-Os'
p24
aS'-w'
p25
aS'-DF_CPU=16000000L'
p26
aS'-DARDUINO=100'
p27
aS'-I/usr/share/arduino/hardware/arduino/cores/arduino'
p28
aS'-I/usr/share/arduino/hardware/arduino/variants/standard'
p29
aS'-Ilib/ros_lib'
p30
aS'-Ilib/ros_lib/ros'
p31
aS'-Ilib/ros_lib/nav_msgs'
p32
aS'-Ilib/ros_lib/std_msgs'
p33
aS'-Ilib/ros_lib/tests'
p34
aS'-Ilib/ros_lib/rosserial_arduino'
p35
aS'-Ilib/ros_lib/geometry_msgs'
p36
aS'-Ilib/ros_lib/sensor_msgs'
p37
aS'-Ilib/ros_lib/tf'
p38
aS'-Ilib/ros_lib/rosserial_msgs'
p39
aS'-Ilib/ros_lib/diagnostic_msgs'
p40
aS'-Ilib/ros_lib/tests/time_test'
p41
aS'-Ilib/ros_lib/tests/float64_test'
p42
aS'-Ilib/ros_lib/tests/array_test'
p43
aS'-I/usr/share/arduino/hardware/arduino/cores/arduino'
p44
atp45
Rp46
tp47
a(S'arduino_libraries_dir'
p48
S'/usr/share/arduino/libraries'
p49
tp50
a(S'arduino_core_dir'
p51
g10
tp52
a(S'boards.txt'
p53
S'/usr/share/arduino/hardware/arduino/boards.txt'
p54
tp55
a(S'cxxflags'
p56
g16
(g17
g18
(lp57
S'-fno-exceptions'
p58
atp59
Rp60
tp61
a(S'arduino_variants_dir'
p62
S'/usr/share/arduino/hardware/arduino/variants'
p63
tp64
a(S'avrdude'
p65
S'/usr/share/arduino/hardware/tools/avrdude'
p66
tp67
a(S'avrdude.conf'
p68
S'/usr/share/arduino/hardware/tools/avrdude.conf'
p69
tp70
a(S'names'
p71
(dp72
S'cpp'
p73
S'%s.cpp'
p74
sS'obj'
p75
S'%s.o'
p76
sS'lib'
p77
S'lib%s.a'
p78
sS'deps'
p79
S'%s.d'
p80
stp81
a(S'deps'
p82
g16
(g17
g18
(lp83
S'.build/uno/src/dependencies.d'
p84
aS'.build/uno/arduino/dependencies.d'
p85
aS'.build/uno/ros_lib/dependencies.d'
p86
atp87
Rp88
tp89
a(S'elfflags'
p90
g16
(g17
g18
(lp91
g24
aS'-Wl,--gc-sections'
p92
ag20
atp93
Rp94
tp95
a(S'arduino_lib_version'
p96
g16
(cino.environment
Version
p97
c__builtin__
tuple
p98
(I1
I0
tp99
tp100
Rp101
tp102
a(S'objcopy'
p103
S'/usr/bin/avr-objcopy'
p104
tp105
a(S'ar'
p106
S'/usr/bin/avr-ar'
p107
tp108
a(S'board_models'
p109
cino.environment
BoardModels
p110
((lp111
(lp112
S'uno'
p113
a(dp114
S'bootloader'
p115
(dp116
S'extended_fuses'
p117
S'0x05'
p118
sS'high_fuses'
p119
S'0xde'
p120
sS'low_fuses'
p121
S'0xff'
p122
sS'lock_bits'
p123
S'0x0F'
p124
sS'file'
p125
S'optiboot_atmega328.hex'
p126
sS'path'
p127
S'optiboot'
p128
sS'unlock_bits'
p129
S'0x3F'
p130
ssS'upload'
p131
(dp132
S'protocol'
p133
S'arduino'
p134
sS'maximum_size'
p135
S'32256'
p136
sS'speed'
p137
S'115200'
p138
ssS'build'
p139
(dp140
S'core'
p141
S'arduino'
p142
sS'mcu'
p143
S'atmega328p'
p144
sS'f_cpu'
p145
S'16000000L'
p146
sS'variant'
p147
S'standard'
p148
ssS'name'
p149
S'Arduino Uno'
p150
saa(lp151
S'alamode'
p152
a(dp153
S'bootloader'
p154
(dp155
S'extended_fuses'
p156
S'0x05'
p157
sS'high_fuses'
p158
S'0xde'
p159
sS'low_fuses'
p160
S'0xff'
p161
sS'lock_bits'
p162
S'0x0F'
p163
sS'file'
p164
S'optiboot_atmega328.hex'
p165
sS'path'
p166
S'optiboot'
p167
sS'unlock_bits'
p168
S'0x3F'
p169
ssS'upload'
p170
(dp171
S'protocol'
p172
S'alamode'
p173
sS'maximum_size'
p174
S'32256'
p175
sS'speed'
p176
S'115200'
p177
ssS'build'
p178
(dp179
S'core'
p180
S'arduino'
p181
sS'mcu'
p182
S'atmega328p'
p183
sS'f_cpu'
p184
S'16000000L'
p185
sS'variant'
p186
S'standard'
p187
ssS'name'
p188
S'AlaMode'
p189
saa(lp190
S'atmega328'
p191
a(dp192
S'bootloader'
p193
(dp194
S'extended_fuses'
p195
S'0x05'
p196
sS'high_fuses'
p197
S'0xDA'
p198
sS'low_fuses'
p199
S'0xFF'
p200
sS'lock_bits'
p201
S'0x0F'
p202
sS'file'
p203
S'ATmegaBOOT_168_atmega328.hex'
p204
sS'path'
p205
S'atmega'
p206
sS'unlock_bits'
p207
S'0x3F'
p208
ssS'upload'
p209
(dp210
S'protocol'
p211
S'arduino'
p212
sS'maximum_size'
p213
S'30720'
p214
sS'speed'
p215
S'57600'
p216
ssS'build'
p217
(dp218
S'core'
p219
S'arduino'
p220
sS'mcu'
p221
S'atmega328p'
p222
sS'f_cpu'
p223
S'16000000L'
p224
sS'variant'
p225
S'standard'
p226
ssS'name'
p227
S'Arduino Duemilanove w/ ATmega328'
p228
saa(lp229
S'diecimila'
p230
a(dp231
S'bootloader'
p232
(dp233
S'extended_fuses'
p234
S'0x00'
p235
sS'high_fuses'
p236
S'0xdd'
p237
sS'low_fuses'
p238
S'0xff'
p239
sS'lock_bits'
p240
S'0x0F'
p241
sS'file'
p242
S'ATmegaBOOT_168_diecimila.hex'
p243
sS'path'
p244
S'atmega'
p245
sS'unlock_bits'
p246
S'0x3F'
p247
ssS'upload'
p248
(dp249
S'protocol'
p250
S'arduino'
p251
sS'maximum_size'
p252
S'14336'
p253
sS'speed'
p254
S'19200'
p255
ssS'build'
p256
(dp257
S'core'
p258
S'arduino'
p259
sS'mcu'
p260
S'atmega168'
p261
sS'f_cpu'
p262
S'16000000L'
p263
sS'variant'
p264
S'standard'
p265
ssS'name'
p266
S'Arduino Diecimila or Duemilanove w/ ATmega168'
p267
saa(lp268
S'nano328'
p269
a(dp270
S'bootloader'
p271
(dp272
S'extended_fuses'
p273
S'0x05'
p274
sS'high_fuses'
p275
S'0xDA'
p276
sS'low_fuses'
p277
S'0xFF'
p278
sS'lock_bits'
p279
S'0x0F'
p280
sS'file'
p281
S'ATmegaBOOT_168_atmega328.hex'
p282
sS'path'
p283
S'atmega'
p284
sS'unlock_bits'
p285
S'0x3F'
p286
ssS'upload'
p287
(dp288
S'protocol'
p289
S'arduino'
p290
sS'maximum_size'
p291
S'30720'
p292
sS'speed'
p293
S'57600'
p294
ssS'build'
p295
(dp296
S'core'
p297
S'arduino'
p298
sS'mcu'
p299
S'atmega328p'
p300
sS'f_cpu'
p301
S'16000000L'
p302
sS'variant'
p303
S'eightanaloginputs'
p304
ssS'name'
p305
S'Arduino Nano w/ ATmega328'
p306
saa(lp307
S'nano'
p308
a(dp309
S'bootloader'
p310
(dp311
S'extended_fuses'
p312
S'0x00'
p313
sS'high_fuses'
p314
S'0xdd'
p315
sS'low_fuses'
p316
S'0xff'
p317
sS'lock_bits'
p318
S'0x0F'
p319
sS'file'
p320
S'ATmegaBOOT_168_diecimila.hex'
p321
sS'path'
p322
S'atmega'
p323
sS'unlock_bits'
p324
S'0x3F'
p325
ssS'upload'
p326
(dp327
S'protocol'
p328
S'arduino'
p329
sS'maximum_size'
p330
S'14336'
p331
sS'speed'
p332
S'19200'
p333
ssS'build'
p334
(dp335
S'core'
p336
S'arduino'
p337
sS'mcu'
p338
S'atmega168'
p339
sS'f_cpu'
p340
S'16000000L'
p341
sS'variant'
p342
S'eightanaloginputs'
p343
ssS'name'
p344
S'Arduino Nano w/ ATmega168'
p345
saa(lp346
S'mega2560'
p347
a(dp348
S'bootloader'
p349
(dp350
S'extended_fuses'
p351
S'0xFD'
p352
sS'high_fuses'
p353
S'0xD8'
p354
sS'low_fuses'
p355
S'0xFF'
p356
sS'lock_bits'
p357
S'0x0F'
p358
sS'file'
p359
S'stk500boot_v2_mega2560.hex'
p360
sS'path'
p361
S'stk500v2'
p362
sS'unlock_bits'
p363
S'0x3F'
p364
ssS'upload'
p365
(dp366
S'protocol'
p367
S'stk500v2'
p368
sS'maximum_size'
p369
S'258048'
p370
sS'speed'
p371
S'115200'
p372
ssS'build'
p373
(dp374
S'core'
p375
S'arduino'
p376
sS'mcu'
p377
S'atmega2560'
p378
sS'f_cpu'
p379
S'16000000L'
p380
sS'variant'
p381
S'mega'
p382
ssS'name'
p383
S'Arduino Mega 2560 or Mega ADK'
p384
saa(lp385
S'mega'
p386
a(dp387
S'bootloader'
p388
(dp389
S'extended_fuses'
p390
S'0xF5'
p391
sS'high_fuses'
p392
S'0xDA'
p393
sS'low_fuses'
p394
S'0xFF'
p395
sS'lock_bits'
p396
S'0x0F'
p397
sS'file'
p398
S'ATmegaBOOT_168_atmega1280.hex'
p399
sS'path'
p400
S'atmega'
p401
sS'unlock_bits'
p402
S'0x3F'
p403
ssS'upload'
p404
(dp405
S'protocol'
p406
S'arduino'
p407
sS'maximum_size'
p408
S'126976'
p409
sS'speed'
p410
S'57600'
p411
ssS'build'
p412
(dp413
S'core'
p414
S'arduino'
p415
sS'mcu'
p416
S'atmega1280'
p417
sS'f_cpu'
p418
S'16000000L'
p419
sS'variant'
p420
S'mega'
p421
ssS'name'
p422
S'Arduino Mega (ATmega1280)'
p423
saa(lp424
S'mini328'
p425
a(dp426
S'bootloader'
p427
(dp428
S'extended_fuses'
p429
S'0x05'
p430
sS'high_fuses'
p431
S'0xd8'
p432
sS'low_fuses'
p433
S'0xff'
p434
sS'lock_bits'
p435
S'0x0F'
p436
sS'file'
p437
S'optiboot_atmega328-Mini.hex'
p438
sS'path'
p439
S'optiboot'
p440
sS'unlock_bits'
p441
S'0x3F'
p442
ssS'upload'
p443
(dp444
S'protocol'
p445
S'stk500'
p446
sS'maximum_size'
p447
S'28672'
p448
sS'speed'
p449
S'115200'
p450
ssS'build'
p451
(dp452
S'core'
p453
S'arduino'
p454
sS'mcu'
p455
S'atmega328p'
p456
sS'f_cpu'
p457
S'16000000L'
p458
sS'variant'
p459
S'eightanaloginputs'
p460
ssS'name'
p461
S'Arduino Mini w/ ATmega328'
p462
saa(lp463
S'mini'
p464
a(dp465
S'bootloader'
p466
(dp467
S'extended_fuses'
p468
S'0x00'
p469
sS'high_fuses'
p470
S'0xdd'
p471
sS'low_fuses'
p472
S'0xff'
p473
sS'lock_bits'
p474
S'0x0F'
p475
sS'file'
p476
S'ATmegaBOOT_168_ng.hex'
p477
sS'path'
p478
S'atmega'
p479
sS'unlock_bits'
p480
S'0x3F'
p481
ssS'upload'
p482
(dp483
S'protocol'
p484
S'arduino'
p485
sS'maximum_size'
p486
S'14336'
p487
sS'speed'
p488
S'19200'
p489
ssS'build'
p490
(dp491
S'core'
p492
S'arduino'
p493
sS'mcu'
p494
S'atmega168'
p495
sS'f_cpu'
p496
S'16000000L'
p497
sS'variant'
p498
S'eightanaloginputs'
p499
ssS'name'
p500
S'Arduino Mini w/ ATmega168'
p501
saa(lp502
S'ethernet'
p503
a(dp504
S'bootloader'
p505
(dp506
S'extended_fuses'
p507
S'0x05'
p508
sS'high_fuses'
p509
S'0xde'
p510
sS'low_fuses'
p511
S'0xff'
p512
sS'lock_bits'
p513
S'0x0F'
p514
sS'file'
p515
S'optiboot_atmega328.hex'
p516
sS'path'
p517
S'optiboot'
p518
sS'unlock_bits'
p519
S'0x3F'
p520
ssS'upload'
p521
(dp522
S'protocol'
p523
S'arduino'
p524
sS'maximum_size'
p525
S'32256'
p526
sS'speed'
p527
S'115200'
p528
ssS'build'
p529
(dp530
S'variant'
p531
S'standard'
p532
sS'mcu'
p533
S'atmega328p'
p534
sS'f_cpu'
p535
S'16000000L'
p536
sS'core'
p537
S'arduino'
p538
ssS'name'
p539
S'Arduino Ethernet'
p540
saa(lp541
S'fio'
p542
a(dp543
S'bootloader'
p544
(dp545
S'extended_fuses'
p546
S'0x05'
p547
sS'high_fuses'
p548
S'0xDA'
p549
sS'low_fuses'
p550
S'0xFF'
p551
sS'lock_bits'
p552
S'0x0F'
p553
sS'file'
p554
S'ATmegaBOOT_168_atmega328_pro_8MHz.hex'
p555
sS'path'
p556
S'arduino:atmega'
p557
sS'unlock_bits'
p558
S'0x3F'
p559
ssS'upload'
p560
(dp561
S'protocol'
p562
S'arduino'
p563
sS'maximum_size'
p564
S'30720'
p565
sS'speed'
p566
S'57600'
p567
ssS'build'
p568
(dp569
S'core'
p570
S'arduino'
p571
sS'mcu'
p572
S'atmega328p'
p573
sS'f_cpu'
p574
S'8000000L'
p575
sS'variant'
p576
S'eightanaloginputs'
p577
ssS'name'
p578
S'Arduino Fio'
p579
saa(lp580
S'bt328'
p581
a(dp582
S'bootloader'
p583
(dp584
S'extended_fuses'
p585
S'0x05'
p586
sS'high_fuses'
p587
S'0xd8'
p588
sS'low_fuses'
p589
S'0xff'
p590
sS'lock_bits'
p591
S'0x0F'
p592
sS'file'
p593
S'ATmegaBOOT_168_atmega328_bt.hex'
p594
sS'path'
p595
S'bt'
p596
sS'unlock_bits'
p597
S'0x3F'
p598
ssS'upload'
p599
(dp600
S'protocol'
p601
S'arduino'
p602
sS'maximum_size'
p603
S'28672'
p604
sS'speed'
p605
S'19200'
p606
sS'disable_flushing'
p607
S'true'
p608
ssS'build'
p609
(dp610
S'core'
p611
S'arduino'
p612
sS'mcu'
p613
S'atmega328p'
p614
sS'f_cpu'
p615
S'16000000L'
p616
sS'variant'
p617
S'eightanaloginputs'
p618
ssS'name'
p619
S'Arduino BT w/ ATmega328'
p620
saa(lp621
S'bt'
p622
a(dp623
S'bootloader'
p624
(dp625
S'extended_fuses'
p626
S'0x00'
p627
sS'high_fuses'
p628
S'0xdd'
p629
sS'low_fuses'
p630
S'0xff'
p631
sS'lock_bits'
p632
S'0x0F'
p633
sS'file'
p634
S'ATmegaBOOT_168.hex'
p635
sS'path'
p636
S'bt'
p637
sS'unlock_bits'
p638
S'0x3F'
p639
ssS'upload'
p640
(dp641
S'protocol'
p642
S'arduino'
p643
sS'maximum_size'
p644
S'14336'
p645
sS'speed'
p646
S'19200'
p647
sS'disable_flushing'
p648
S'true'
p649
ssS'build'
p650
(dp651
S'core'
p652
S'arduino'
p653
sS'mcu'
p654
S'atmega168'
p655
sS'f_cpu'
p656
S'16000000L'
p657
sS'variant'
p658
S'eightanaloginputs'
p659
ssS'name'
p660
S'Arduino BT w/ ATmega168'
p661
saa(lp662
S'lilypad328'
p663
a(dp664
S'bootloader'
p665
(dp666
S'extended_fuses'
p667
S'0x05'
p668
sS'high_fuses'
p669
S'0xDA'
p670
sS'low_fuses'
p671
S'0xFF'
p672
sS'lock_bits'
p673
S'0x0F'
p674
sS'file'
p675
S'ATmegaBOOT_168_atmega328_pro_8MHz.hex'
p676
sS'path'
p677
S'atmega'
p678
sS'unlock_bits'
p679
S'0x3F'
p680
ssS'upload'
p681
(dp682
S'protocol'
p683
S'arduino'
p684
sS'maximum_size'
p685
S'30720'
p686
sS'speed'
p687
S'57600'
p688
ssS'build'
p689
(dp690
S'core'
p691
S'arduino'
p692
sS'mcu'
p693
S'atmega328p'
p694
sS'f_cpu'
p695
S'8000000L'
p696
sS'variant'
p697
S'standard'
p698
ssS'name'
p699
S'LilyPad Arduino w/ ATmega328'
p700
saa(lp701
S'lilypad'
p702
a(dp703
S'bootloader'
p704
(dp705
S'extended_fuses'
p706
S'0x00'
p707
sS'high_fuses'
p708
S'0xdd'
p709
sS'low_fuses'
p710
S'0xe2'
p711
sS'lock_bits'
p712
S'0x0F'
p713
sS'file'
p714
S'LilyPadBOOT_168.hex'
p715
sS'path'
p716
S'lilypad'
p717
sS'unlock_bits'
p718
S'0x3F'
p719
ssS'upload'
p720
(dp721
S'protocol'
p722
S'arduino'
p723
sS'maximum_size'
p724
S'14336'
p725
sS'speed'
p726
S'19200'
p727
ssS'build'
p728
(dp729
S'core'
p730
S'arduino'
p731
sS'mcu'
p732
S'atmega168'
p733
sS'f_cpu'
p734
S'8000000L'
p735
sS'variant'
p736
S'standard'
p737
ssS'name'
p738
S'LilyPad Arduino w/ ATmega168'
p739
saa(lp740
S'pro5v328'
p741
a(dp742
S'bootloader'
p743
(dp744
S'extended_fuses'
p745
S'0x05'
p746
sS'high_fuses'
p747
S'0xDA'
p748
sS'low_fuses'
p749
S'0xFF'
p750
sS'lock_bits'
p751
S'0x0F'
p752
sS'file'
p753
S'ATmegaBOOT_168_atmega328.hex'
p754
sS'path'
p755
S'atmega'
p756
sS'unlock_bits'
p757
S'0x3F'
p758
ssS'upload'
p759
(dp760
S'protocol'
p761
S'arduino'
p762
sS'maximum_size'
p763
S'30720'
p764
sS'speed'
p765
S'57600'
p766
ssS'build'
p767
(dp768
S'core'
p769
S'arduino'
p770
sS'mcu'
p771
S'atmega328p'
p772
sS'f_cpu'
p773
S'16000000L'
p774
sS'variant'
p775
S'standard'
p776
ssS'name'
p777
S'Arduino Pro or Pro Mini (5V, 16 MHz) w/ ATmega328'
p778
saa(lp779
S'pro5v'
p780
a(dp781
S'bootloader'
p782
(dp783
S'extended_fuses'
p784
S'0x00'
p785
sS'high_fuses'
p786
S'0xdd'
p787
sS'low_fuses'
p788
S'0xff'
p789
sS'lock_bits'
p790
S'0x0F'
p791
sS'file'
p792
S'ATmegaBOOT_168_diecimila.hex'
p793
sS'path'
p794
S'atmega'
p795
sS'unlock_bits'
p796
S'0x3F'
p797
ssS'upload'
p798
(dp799
S'protocol'
p800
S'arduino'
p801
sS'maximum_size'
p802
S'14336'
p803
sS'speed'
p804
S'19200'
p805
ssS'build'
p806
(dp807
S'core'
p808
S'arduino'
p809
sS'mcu'
p810
S'atmega168'
p811
sS'f_cpu'
p812
S'16000000L'
p813
sS'variant'
p814
S'standard'
p815
ssS'name'
p816
S'Arduino Pro or Pro Mini (5V, 16 MHz) w/ ATmega168'
p817
saa(lp818
S'pro328'
p819
a(dp820
S'bootloader'
p821
(dp822
S'extended_fuses'
p823
S'0x05'
p824
sS'high_fuses'
p825
S'0xDA'
p826
sS'low_fuses'
p827
S'0xFF'
p828
sS'lock_bits'
p829
S'0x0F'
p830
sS'file'
p831
S'ATmegaBOOT_168_atmega328_pro_8MHz.hex'
p832
sS'path'
p833
S'atmega'
p834
sS'unlock_bits'
p835
S'0x3F'
p836
ssS'upload'
p837
(dp838
S'protocol'
p839
S'arduino'
p840
sS'maximum_size'
p841
S'30720'
p842
sS'speed'
p843
S'57600'
p844
ssS'build'
p845
(dp846
S'core'
p847
S'arduino'
p848
sS'mcu'
p849
S'atmega328p'
p850
sS'f_cpu'
p851
S'8000000L'
p852
sS'variant'
p853
S'standard'
p854
ssS'name'
p855
S'Arduino Pro or Pro Mini (3.3V, 8 MHz) w/ ATmega328'
p856
saa(lp857
S'pro'
p858
a(dp859
S'bootloader'
p860
(dp861
S'extended_fuses'
p862
S'0x00'
p863
sS'high_fuses'
p864
S'0xdd'
p865
sS'low_fuses'
p866
S'0xc6'
p867
sS'lock_bits'
p868
S'0x0F'
p869
sS'file'
p870
S'ATmegaBOOT_168_pro_8MHz.hex'
p871
sS'path'
p872
S'atmega'
p873
sS'unlock_bits'
p874
S'0x3F'
p875
ssS'upload'
p876
(dp877
S'protocol'
p878
S'arduino'
p879
sS'maximum_size'
p880
S'14336'
p881
sS'speed'
p882
S'19200'
p883
ssS'build'
p884
(dp885
S'core'
p886
S'arduino'
p887
sS'mcu'
p888
S'atmega168'
p889
sS'f_cpu'
p890
S'8000000L'
p891
sS'variant'
p892
S'standard'
p893
ssS'name'
p894
S'Arduino Pro or Pro Mini (3.3V, 8 MHz) w/ ATmega168'
p895
saa(lp896
S'atmega168'
p897
a(dp898
S'bootloader'
p899
(dp900
S'extended_fuses'
p901
S'0x00'
p902
sS'high_fuses'
p903
S'0xdd'
p904
sS'low_fuses'
p905
S'0xff'
p906
sS'lock_bits'
p907
S'0x0F'
p908
sS'file'
p909
S'ATmegaBOOT_168_ng.hex'
p910
sS'path'
p911
S'atmega'
p912
sS'unlock_bits'
p913
S'0x3F'
p914
ssS'upload'
p915
(dp916
S'protocol'
p917
S'arduino'
p918
sS'maximum_size'
p919
S'14336'
p920
sS'speed'
p921
S'19200'
p922
ssS'build'
p923
(dp924
S'core'
p925
S'arduino'
p926
sS'mcu'
p927
S'atmega168'
p928
sS'f_cpu'
p929
S'16000000L'
p930
sS'variant'
p931
S'standard'
p932
ssS'name'
p933
S'Arduino NG or older w/ ATmega168'
p934
saa(lp935
S'atmega8'
p936
a(dp937
S'bootloader'
p938
(dp939
S'high_fuses'
p940
S'0xca'
p941
sS'low_fuses'
p942
S'0xdf'
p943
sS'lock_bits'
p944
S'0x0F'
p945
sS'file'
p946
S'ATmegaBOOT.hex'
p947
sS'path'
p948
S'atmega8'
p949
sS'unlock_bits'
p950
S'0x3F'
p951
ssS'upload'
p952
(dp953
S'protocol'
p954
S'arduino'
p955
sS'maximum_size'
p956
S'7168'
p957
sS'speed'
p958
S'19200'
p959
ssS'build'
p960
(dp961
S'core'
p962
S'arduino'
p963
sS'mcu'
p964
S'atmega8'
p965
sS'f_cpu'
p966
S'16000000L'
p967
sS'variant'
p968
S'standard'
p969
ssS'name'
p970
S'Arduino NG or older w/ ATmega8'
p971
saatp972
Rp973
(dp974
S'default'
p975
S'uno'
p976
sbtp977
a(S'cxx'
p978
S'/usr/bin/avr-g++'
p979
tp980
a(S'build_dir'
p981
S'.build/uno'
p982
tp983
a.