(lp0
(S'stty'
p1
S'/bin/stty'
p2
tp3
a(S'version.txt'
p4
S'/usr/share/arduino/lib/version.txt'
p5
tp6
a(S'used_libs'
p7
(lp8
S'lib/ros_lib'
p9
aS'/usr/share/arduino/hardware/arduino/cores/arduino'
p10
atp11
a(S'cxx'
p12
S'/usr/bin/avr-g++'
p13
tp14
a(S'arduino_variants_dir'
p15
S'/usr/share/arduino/hardware/arduino/variants'
p16
tp17
a(S'arduino_libraries_dir'
p18
S'/usr/share/arduino/libraries'
p19
tp20
a(S'arduino_core_dir'
p21
g10
tp22
a(S'boards.txt'
p23
S'/usr/share/arduino/hardware/arduino/boards.txt'
p24
tp25
a(S'cxxflags'
p26
ccopy_reg
_reconstructor
p27
(cino.utils
SpaceList
p28
c__builtin__
list
p29
(lp30
S'-fno-exceptions'
p31
atp32
Rp33
tp34
a(S'cc'
p35
S'/usr/bin/avr-gcc'
p36
tp37
a(S'avrdude'
p38
S'/usr/share/arduino/hardware/tools/avrdude'
p39
tp40
a(S'avrdude.conf'
p41
S'/usr/share/arduino/hardware/tools/avrdude.conf'
p42
tp43
a(S'names'
p44
(dp45
S'cpp'
p46
S'%s.cpp'
p47
sS'obj'
p48
S'%s.o'
p49
sS'lib'
p50
S'lib%s.a'
p51
sS'deps'
p52
S'%s.d'
p53
stp54
a(S'cflags'
p55
g27
(g28
g29
(lp56
S'-mmcu=atmega328p'
p57
aS'-ffunction-sections'
p58
aS'-fdata-sections'
p59
aS'-g'
p60
aS'-Os'
p61
aS'-w'
p62
aS'-DF_CPU=16000000L'
p63
aS'-DARDUINO=100'
p64
aS'-I/usr/share/arduino/hardware/arduino/cores/arduino'
p65
aS'-I/usr/share/arduino/hardware/arduino/variants/standard'
p66
aS'-Ilib/ros_lib'
p67
aS'-Ilib/ros_lib/diagnostic_msgs'
p68
aS'-Ilib/ros_lib/ros'
p69
aS'-Ilib/ros_lib/std_msgs'
p70
aS'-Ilib/ros_lib/tf'
p71
aS'-Ilib/ros_lib/nav_msgs'
p72
aS'-Ilib/ros_lib/rosserial_arduino'
p73
aS'-Ilib/ros_lib/rosserial_msgs'
p74
aS'-Ilib/ros_lib/tests'
p75
aS'-Ilib/ros_lib/sensor_msgs'
p76
aS'-Ilib/ros_lib/geometry_msgs'
p77
aS'-Ilib/ros_lib/tests/time_test'
p78
aS'-Ilib/ros_lib/tests/array_test'
p79
aS'-Ilib/ros_lib/tests/float64_test'
p80
aS'-I/usr/share/arduino/hardware/arduino/cores/arduino'
p81
atp82
Rp83
tp84
a(S'elfflags'
p85
g27
(g28
g29
(lp86
g61
aS'-Wl,--gc-sections'
p87
ag57
atp88
Rp89
tp90
a(S'arduino_lib_version'
p91
g27
(cino.environment
Version
p92
c__builtin__
tuple
p93
(I1
I0
tp94
tp95
Rp96
tp97
a(S'objcopy'
p98
S'/usr/bin/avr-objcopy'
p99
tp100
a(S'ar'
p101
S'/usr/bin/avr-ar'
p102
tp103
a(S'board_models'
p104
cino.environment
BoardModels
p105
((lp106
(lp107
S'uno'
p108
a(dp109
S'build'
p110
(dp111
S'core'
p112
S'arduino'
p113
sS'mcu'
p114
S'atmega328p'
p115
sS'f_cpu'
p116
S'16000000L'
p117
sS'variant'
p118
S'standard'
p119
ssS'bootloader'
p120
(dp121
S'extended_fuses'
p122
S'0x05'
p123
sS'high_fuses'
p124
S'0xde'
p125
sS'low_fuses'
p126
S'0xff'
p127
sS'lock_bits'
p128
S'0x0F'
p129
sS'file'
p130
S'optiboot_atmega328.hex'
p131
sS'path'
p132
S'optiboot'
p133
sS'unlock_bits'
p134
S'0x3F'
p135
ssS'upload'
p136
(dp137
S'protocol'
p138
S'arduino'
p139
sS'maximum_size'
p140
S'32256'
p141
sS'speed'
p142
S'115200'
p143
ssS'name'
p144
S'Arduino Uno'
p145
saa(lp146
S'alamode'
p147
a(dp148
S'build'
p149
(dp150
S'core'
p151
S'arduino'
p152
sS'mcu'
p153
S'atmega328p'
p154
sS'f_cpu'
p155
S'16000000L'
p156
sS'variant'
p157
S'standard'
p158
ssS'bootloader'
p159
(dp160
S'extended_fuses'
p161
S'0x05'
p162
sS'high_fuses'
p163
S'0xde'
p164
sS'low_fuses'
p165
S'0xff'
p166
sS'lock_bits'
p167
S'0x0F'
p168
sS'file'
p169
S'optiboot_atmega328.hex'
p170
sS'path'
p171
S'optiboot'
p172
sS'unlock_bits'
p173
S'0x3F'
p174
ssS'upload'
p175
(dp176
S'protocol'
p177
S'alamode'
p178
sS'maximum_size'
p179
S'32256'
p180
sS'speed'
p181
S'115200'
p182
ssS'name'
p183
S'AlaMode'
p184
saa(lp185
S'atmega328'
p186
a(dp187
S'build'
p188
(dp189
S'core'
p190
S'arduino'
p191
sS'mcu'
p192
S'atmega328p'
p193
sS'f_cpu'
p194
S'16000000L'
p195
sS'variant'
p196
S'standard'
p197
ssS'bootloader'
p198
(dp199
S'extended_fuses'
p200
S'0x05'
p201
sS'high_fuses'
p202
S'0xDA'
p203
sS'low_fuses'
p204
S'0xFF'
p205
sS'lock_bits'
p206
S'0x0F'
p207
sS'file'
p208
S'ATmegaBOOT_168_atmega328.hex'
p209
sS'path'
p210
S'atmega'
p211
sS'unlock_bits'
p212
S'0x3F'
p213
ssS'upload'
p214
(dp215
S'protocol'
p216
S'arduino'
p217
sS'maximum_size'
p218
S'30720'
p219
sS'speed'
p220
S'57600'
p221
ssS'name'
p222
S'Arduino Duemilanove w/ ATmega328'
p223
saa(lp224
S'diecimila'
p225
a(dp226
S'build'
p227
(dp228
S'core'
p229
S'arduino'
p230
sS'mcu'
p231
S'atmega168'
p232
sS'f_cpu'
p233
S'16000000L'
p234
sS'variant'
p235
S'standard'
p236
ssS'bootloader'
p237
(dp238
S'extended_fuses'
p239
S'0x00'
p240
sS'high_fuses'
p241
S'0xdd'
p242
sS'low_fuses'
p243
S'0xff'
p244
sS'lock_bits'
p245
S'0x0F'
p246
sS'file'
p247
S'ATmegaBOOT_168_diecimila.hex'
p248
sS'path'
p249
S'atmega'
p250
sS'unlock_bits'
p251
S'0x3F'
p252
ssS'upload'
p253
(dp254
S'protocol'
p255
S'arduino'
p256
sS'maximum_size'
p257
S'14336'
p258
sS'speed'
p259
S'19200'
p260
ssS'name'
p261
S'Arduino Diecimila or Duemilanove w/ ATmega168'
p262
saa(lp263
S'nano328'
p264
a(dp265
S'build'
p266
(dp267
S'core'
p268
S'arduino'
p269
sS'mcu'
p270
S'atmega328p'
p271
sS'f_cpu'
p272
S'16000000L'
p273
sS'variant'
p274
S'eightanaloginputs'
p275
ssS'bootloader'
p276
(dp277
S'extended_fuses'
p278
S'0x05'
p279
sS'high_fuses'
p280
S'0xDA'
p281
sS'low_fuses'
p282
S'0xFF'
p283
sS'lock_bits'
p284
S'0x0F'
p285
sS'file'
p286
S'ATmegaBOOT_168_atmega328.hex'
p287
sS'path'
p288
S'atmega'
p289
sS'unlock_bits'
p290
S'0x3F'
p291
ssS'upload'
p292
(dp293
S'protocol'
p294
S'arduino'
p295
sS'maximum_size'
p296
S'30720'
p297
sS'speed'
p298
S'57600'
p299
ssS'name'
p300
S'Arduino Nano w/ ATmega328'
p301
saa(lp302
S'nano'
p303
a(dp304
S'build'
p305
(dp306
S'core'
p307
S'arduino'
p308
sS'mcu'
p309
S'atmega168'
p310
sS'f_cpu'
p311
S'16000000L'
p312
sS'variant'
p313
S'eightanaloginputs'
p314
ssS'bootloader'
p315
(dp316
S'extended_fuses'
p317
S'0x00'
p318
sS'high_fuses'
p319
S'0xdd'
p320
sS'low_fuses'
p321
S'0xff'
p322
sS'lock_bits'
p323
S'0x0F'
p324
sS'file'
p325
S'ATmegaBOOT_168_diecimila.hex'
p326
sS'path'
p327
S'atmega'
p328
sS'unlock_bits'
p329
S'0x3F'
p330
ssS'upload'
p331
(dp332
S'protocol'
p333
S'arduino'
p334
sS'maximum_size'
p335
S'14336'
p336
sS'speed'
p337
S'19200'
p338
ssS'name'
p339
S'Arduino Nano w/ ATmega168'
p340
saa(lp341
S'mega2560'
p342
a(dp343
S'build'
p344
(dp345
S'core'
p346
S'arduino'
p347
sS'mcu'
p348
S'atmega2560'
p349
sS'f_cpu'
p350
S'16000000L'
p351
sS'variant'
p352
S'mega'
p353
ssS'bootloader'
p354
(dp355
S'extended_fuses'
p356
S'0xFD'
p357
sS'high_fuses'
p358
S'0xD8'
p359
sS'low_fuses'
p360
S'0xFF'
p361
sS'lock_bits'
p362
S'0x0F'
p363
sS'file'
p364
S'stk500boot_v2_mega2560.hex'
p365
sS'path'
p366
S'stk500v2'
p367
sS'unlock_bits'
p368
S'0x3F'
p369
ssS'upload'
p370
(dp371
S'protocol'
p372
S'stk500v2'
p373
sS'maximum_size'
p374
S'258048'
p375
sS'speed'
p376
S'115200'
p377
ssS'name'
p378
S'Arduino Mega 2560 or Mega ADK'
p379
saa(lp380
S'mega'
p381
a(dp382
S'build'
p383
(dp384
S'core'
p385
S'arduino'
p386
sS'mcu'
p387
S'atmega1280'
p388
sS'f_cpu'
p389
S'16000000L'
p390
sS'variant'
p391
S'mega'
p392
ssS'bootloader'
p393
(dp394
S'extended_fuses'
p395
S'0xF5'
p396
sS'high_fuses'
p397
S'0xDA'
p398
sS'low_fuses'
p399
S'0xFF'
p400
sS'lock_bits'
p401
S'0x0F'
p402
sS'file'
p403
S'ATmegaBOOT_168_atmega1280.hex'
p404
sS'path'
p405
S'atmega'
p406
sS'unlock_bits'
p407
S'0x3F'
p408
ssS'upload'
p409
(dp410
S'protocol'
p411
S'arduino'
p412
sS'maximum_size'
p413
S'126976'
p414
sS'speed'
p415
S'57600'
p416
ssS'name'
p417
S'Arduino Mega (ATmega1280)'
p418
saa(lp419
S'mini328'
p420
a(dp421
S'build'
p422
(dp423
S'core'
p424
S'arduino'
p425
sS'mcu'
p426
S'atmega328p'
p427
sS'f_cpu'
p428
S'16000000L'
p429
sS'variant'
p430
S'eightanaloginputs'
p431
ssS'bootloader'
p432
(dp433
S'extended_fuses'
p434
S'0x05'
p435
sS'high_fuses'
p436
S'0xd8'
p437
sS'low_fuses'
p438
S'0xff'
p439
sS'lock_bits'
p440
S'0x0F'
p441
sS'file'
p442
S'optiboot_atmega328-Mini.hex'
p443
sS'path'
p444
S'optiboot'
p445
sS'unlock_bits'
p446
S'0x3F'
p447
ssS'upload'
p448
(dp449
S'protocol'
p450
S'stk500'
p451
sS'maximum_size'
p452
S'28672'
p453
sS'speed'
p454
S'115200'
p455
ssS'name'
p456
S'Arduino Mini w/ ATmega328'
p457
saa(lp458
S'mini'
p459
a(dp460
S'build'
p461
(dp462
S'core'
p463
S'arduino'
p464
sS'mcu'
p465
S'atmega168'
p466
sS'f_cpu'
p467
S'16000000L'
p468
sS'variant'
p469
S'eightanaloginputs'
p470
ssS'bootloader'
p471
(dp472
S'extended_fuses'
p473
S'0x00'
p474
sS'high_fuses'
p475
S'0xdd'
p476
sS'low_fuses'
p477
S'0xff'
p478
sS'lock_bits'
p479
S'0x0F'
p480
sS'file'
p481
S'ATmegaBOOT_168_ng.hex'
p482
sS'path'
p483
S'atmega'
p484
sS'unlock_bits'
p485
S'0x3F'
p486
ssS'upload'
p487
(dp488
S'protocol'
p489
S'arduino'
p490
sS'maximum_size'
p491
S'14336'
p492
sS'speed'
p493
S'19200'
p494
ssS'name'
p495
S'Arduino Mini w/ ATmega168'
p496
saa(lp497
S'ethernet'
p498
a(dp499
S'build'
p500
(dp501
S'variant'
p502
S'standard'
p503
sS'mcu'
p504
S'atmega328p'
p505
sS'f_cpu'
p506
S'16000000L'
p507
sS'core'
p508
S'arduino'
p509
ssS'bootloader'
p510
(dp511
S'extended_fuses'
p512
S'0x05'
p513
sS'high_fuses'
p514
S'0xde'
p515
sS'low_fuses'
p516
S'0xff'
p517
sS'lock_bits'
p518
S'0x0F'
p519
sS'file'
p520
S'optiboot_atmega328.hex'
p521
sS'path'
p522
S'optiboot'
p523
sS'unlock_bits'
p524
S'0x3F'
p525
ssS'upload'
p526
(dp527
S'protocol'
p528
S'arduino'
p529
sS'maximum_size'
p530
S'32256'
p531
sS'speed'
p532
S'115200'
p533
ssS'name'
p534
S'Arduino Ethernet'
p535
saa(lp536
S'fio'
p537
a(dp538
S'build'
p539
(dp540
S'core'
p541
S'arduino'
p542
sS'mcu'
p543
S'atmega328p'
p544
sS'f_cpu'
p545
S'8000000L'
p546
sS'variant'
p547
S'eightanaloginputs'
p548
ssS'bootloader'
p549
(dp550
S'extended_fuses'
p551
S'0x05'
p552
sS'high_fuses'
p553
S'0xDA'
p554
sS'low_fuses'
p555
S'0xFF'
p556
sS'lock_bits'
p557
S'0x0F'
p558
sS'file'
p559
S'ATmegaBOOT_168_atmega328_pro_8MHz.hex'
p560
sS'path'
p561
S'arduino:atmega'
p562
sS'unlock_bits'
p563
S'0x3F'
p564
ssS'upload'
p565
(dp566
S'protocol'
p567
S'arduino'
p568
sS'maximum_size'
p569
S'30720'
p570
sS'speed'
p571
S'57600'
p572
ssS'name'
p573
S'Arduino Fio'
p574
saa(lp575
S'bt328'
p576
a(dp577
S'build'
p578
(dp579
S'core'
p580
S'arduino'
p581
sS'mcu'
p582
S'atmega328p'
p583
sS'f_cpu'
p584
S'16000000L'
p585
sS'variant'
p586
S'eightanaloginputs'
p587
ssS'bootloader'
p588
(dp589
S'extended_fuses'
p590
S'0x05'
p591
sS'high_fuses'
p592
S'0xd8'
p593
sS'low_fuses'
p594
S'0xff'
p595
sS'lock_bits'
p596
S'0x0F'
p597
sS'file'
p598
S'ATmegaBOOT_168_atmega328_bt.hex'
p599
sS'path'
p600
S'bt'
p601
sS'unlock_bits'
p602
S'0x3F'
p603
ssS'upload'
p604
(dp605
S'protocol'
p606
S'arduino'
p607
sS'maximum_size'
p608
S'28672'
p609
sS'speed'
p610
S'19200'
p611
sS'disable_flushing'
p612
S'true'
p613
ssS'name'
p614
S'Arduino BT w/ ATmega328'
p615
saa(lp616
S'bt'
p617
a(dp618
S'build'
p619
(dp620
S'core'
p621
S'arduino'
p622
sS'mcu'
p623
S'atmega168'
p624
sS'f_cpu'
p625
S'16000000L'
p626
sS'variant'
p627
S'eightanaloginputs'
p628
ssS'bootloader'
p629
(dp630
S'extended_fuses'
p631
S'0x00'
p632
sS'high_fuses'
p633
S'0xdd'
p634
sS'low_fuses'
p635
S'0xff'
p636
sS'lock_bits'
p637
S'0x0F'
p638
sS'file'
p639
S'ATmegaBOOT_168.hex'
p640
sS'path'
p641
S'bt'
p642
sS'unlock_bits'
p643
S'0x3F'
p644
ssS'upload'
p645
(dp646
S'protocol'
p647
S'arduino'
p648
sS'maximum_size'
p649
S'14336'
p650
sS'speed'
p651
S'19200'
p652
sS'disable_flushing'
p653
S'true'
p654
ssS'name'
p655
S'Arduino BT w/ ATmega168'
p656
saa(lp657
S'lilypad328'
p658
a(dp659
S'build'
p660
(dp661
S'core'
p662
S'arduino'
p663
sS'mcu'
p664
S'atmega328p'
p665
sS'f_cpu'
p666
S'8000000L'
p667
sS'variant'
p668
S'standard'
p669
ssS'bootloader'
p670
(dp671
S'extended_fuses'
p672
S'0x05'
p673
sS'high_fuses'
p674
S'0xDA'
p675
sS'low_fuses'
p676
S'0xFF'
p677
sS'lock_bits'
p678
S'0x0F'
p679
sS'file'
p680
S'ATmegaBOOT_168_atmega328_pro_8MHz.hex'
p681
sS'path'
p682
S'atmega'
p683
sS'unlock_bits'
p684
S'0x3F'
p685
ssS'upload'
p686
(dp687
S'protocol'
p688
S'arduino'
p689
sS'maximum_size'
p690
S'30720'
p691
sS'speed'
p692
S'57600'
p693
ssS'name'
p694
S'LilyPad Arduino w/ ATmega328'
p695
saa(lp696
S'lilypad'
p697
a(dp698
S'build'
p699
(dp700
S'core'
p701
S'arduino'
p702
sS'mcu'
p703
S'atmega168'
p704
sS'f_cpu'
p705
S'8000000L'
p706
sS'variant'
p707
S'standard'
p708
ssS'bootloader'
p709
(dp710
S'extended_fuses'
p711
S'0x00'
p712
sS'high_fuses'
p713
S'0xdd'
p714
sS'low_fuses'
p715
S'0xe2'
p716
sS'lock_bits'
p717
S'0x0F'
p718
sS'file'
p719
S'LilyPadBOOT_168.hex'
p720
sS'path'
p721
S'lilypad'
p722
sS'unlock_bits'
p723
S'0x3F'
p724
ssS'upload'
p725
(dp726
S'protocol'
p727
S'arduino'
p728
sS'maximum_size'
p729
S'14336'
p730
sS'speed'
p731
S'19200'
p732
ssS'name'
p733
S'LilyPad Arduino w/ ATmega168'
p734
saa(lp735
S'pro5v328'
p736
a(dp737
S'build'
p738
(dp739
S'core'
p740
S'arduino'
p741
sS'mcu'
p742
S'atmega328p'
p743
sS'f_cpu'
p744
S'16000000L'
p745
sS'variant'
p746
S'standard'
p747
ssS'bootloader'
p748
(dp749
S'extended_fuses'
p750
S'0x05'
p751
sS'high_fuses'
p752
S'0xDA'
p753
sS'low_fuses'
p754
S'0xFF'
p755
sS'lock_bits'
p756
S'0x0F'
p757
sS'file'
p758
S'ATmegaBOOT_168_atmega328.hex'
p759
sS'path'
p760
S'atmega'
p761
sS'unlock_bits'
p762
S'0x3F'
p763
ssS'upload'
p764
(dp765
S'protocol'
p766
S'arduino'
p767
sS'maximum_size'
p768
S'30720'
p769
sS'speed'
p770
S'57600'
p771
ssS'name'
p772
S'Arduino Pro or Pro Mini (5V, 16 MHz) w/ ATmega328'
p773
saa(lp774
S'pro5v'
p775
a(dp776
S'build'
p777
(dp778
S'core'
p779
S'arduino'
p780
sS'mcu'
p781
S'atmega168'
p782
sS'f_cpu'
p783
S'16000000L'
p784
sS'variant'
p785
S'standard'
p786
ssS'bootloader'
p787
(dp788
S'extended_fuses'
p789
S'0x00'
p790
sS'high_fuses'
p791
S'0xdd'
p792
sS'low_fuses'
p793
S'0xff'
p794
sS'lock_bits'
p795
S'0x0F'
p796
sS'file'
p797
S'ATmegaBOOT_168_diecimila.hex'
p798
sS'path'
p799
S'atmega'
p800
sS'unlock_bits'
p801
S'0x3F'
p802
ssS'upload'
p803
(dp804
S'protocol'
p805
S'arduino'
p806
sS'maximum_size'
p807
S'14336'
p808
sS'speed'
p809
S'19200'
p810
ssS'name'
p811
S'Arduino Pro or Pro Mini (5V, 16 MHz) w/ ATmega168'
p812
saa(lp813
S'pro328'
p814
a(dp815
S'build'
p816
(dp817
S'core'
p818
S'arduino'
p819
sS'mcu'
p820
S'atmega328p'
p821
sS'f_cpu'
p822
S'8000000L'
p823
sS'variant'
p824
S'standard'
p825
ssS'bootloader'
p826
(dp827
S'extended_fuses'
p828
S'0x05'
p829
sS'high_fuses'
p830
S'0xDA'
p831
sS'low_fuses'
p832
S'0xFF'
p833
sS'lock_bits'
p834
S'0x0F'
p835
sS'file'
p836
S'ATmegaBOOT_168_atmega328_pro_8MHz.hex'
p837
sS'path'
p838
S'atmega'
p839
sS'unlock_bits'
p840
S'0x3F'
p841
ssS'upload'
p842
(dp843
S'protocol'
p844
S'arduino'
p845
sS'maximum_size'
p846
S'30720'
p847
sS'speed'
p848
S'57600'
p849
ssS'name'
p850
S'Arduino Pro or Pro Mini (3.3V, 8 MHz) w/ ATmega328'
p851
saa(lp852
S'pro'
p853
a(dp854
S'build'
p855
(dp856
S'core'
p857
S'arduino'
p858
sS'mcu'
p859
S'atmega168'
p860
sS'f_cpu'
p861
S'8000000L'
p862
sS'variant'
p863
S'standard'
p864
ssS'bootloader'
p865
(dp866
S'extended_fuses'
p867
S'0x00'
p868
sS'high_fuses'
p869
S'0xdd'
p870
sS'low_fuses'
p871
S'0xc6'
p872
sS'lock_bits'
p873
S'0x0F'
p874
sS'file'
p875
S'ATmegaBOOT_168_pro_8MHz.hex'
p876
sS'path'
p877
S'atmega'
p878
sS'unlock_bits'
p879
S'0x3F'
p880
ssS'upload'
p881
(dp882
S'protocol'
p883
S'arduino'
p884
sS'maximum_size'
p885
S'14336'
p886
sS'speed'
p887
S'19200'
p888
ssS'name'
p889
S'Arduino Pro or Pro Mini (3.3V, 8 MHz) w/ ATmega168'
p890
saa(lp891
S'atmega168'
p892
a(dp893
S'build'
p894
(dp895
S'core'
p896
S'arduino'
p897
sS'mcu'
p898
S'atmega168'
p899
sS'f_cpu'
p900
S'16000000L'
p901
sS'variant'
p902
S'standard'
p903
ssS'bootloader'
p904
(dp905
S'extended_fuses'
p906
S'0x00'
p907
sS'high_fuses'
p908
S'0xdd'
p909
sS'low_fuses'
p910
S'0xff'
p911
sS'lock_bits'
p912
S'0x0F'
p913
sS'file'
p914
S'ATmegaBOOT_168_ng.hex'
p915
sS'path'
p916
S'atmega'
p917
sS'unlock_bits'
p918
S'0x3F'
p919
ssS'upload'
p920
(dp921
S'protocol'
p922
S'arduino'
p923
sS'maximum_size'
p924
S'14336'
p925
sS'speed'
p926
S'19200'
p927
ssS'name'
p928
S'Arduino NG or older w/ ATmega168'
p929
saa(lp930
S'atmega8'
p931
a(dp932
S'build'
p933
(dp934
S'core'
p935
S'arduino'
p936
sS'mcu'
p937
S'atmega8'
p938
sS'f_cpu'
p939
S'16000000L'
p940
sS'variant'
p941
S'standard'
p942
ssS'bootloader'
p943
(dp944
S'high_fuses'
p945
S'0xca'
p946
sS'low_fuses'
p947
S'0xdf'
p948
sS'lock_bits'
p949
S'0x0F'
p950
sS'file'
p951
S'ATmegaBOOT.hex'
p952
sS'path'
p953
S'atmega8'
p954
sS'unlock_bits'
p955
S'0x3F'
p956
ssS'upload'
p957
(dp958
S'protocol'
p959
S'arduino'
p960
sS'maximum_size'
p961
S'7168'
p962
sS'speed'
p963
S'19200'
p964
ssS'name'
p965
S'Arduino NG or older w/ ATmega8'
p966
saatp967
Rp968
(dp969
S'default'
p970
S'uno'
p971
sbtp972
a(S'deps'
p973
g27
(g28
g29
(lp974
S'.build/alamode/src/dependencies.d'
p975
aS'.build/alamode/arduino/dependencies.d'
p976
aS'.build/alamode/ros_lib/dependencies.d'
p977
atp978
Rp979
tp980
a(S'build_dir'
p981
S'.build/alamode'
p982
tp983
a.