(lp0
(S'arduino_libraries_dir'
p1
S'/usr/share/arduino/libraries'
p2
tp3
a(S'cxx'
p4
S'/usr/bin/avr-g++'
p5
tp6
a(S'stty'
p7
S'/bin/stty'
p8
tp9
a(S'version.txt'
p10
S'/usr/share/arduino/lib/version.txt'
p11
tp12
a(S'used_libs'
p13
(lp14
S'lib/ros_lib'
p15
aS'lib/LSM303-master'
p16
aS'/usr/share/arduino/libraries/Wire'
p17
aS'/usr/share/arduino/hardware/arduino/cores/arduino'
p18
atp19
a(S'cc'
p20
S'/usr/bin/avr-gcc'
p21
tp22
a(S'build_dir'
p23
S'.build/uno'
p24
tp25
a(S'arduino_core_dir'
p26
g18
tp27
a(S'boards.txt'
p28
S'/usr/share/arduino/hardware/arduino/boards.txt'
p29
tp30
a(S'cxxflags'
p31
ccopy_reg
_reconstructor
p32
(cino.utils
SpaceList
p33
c__builtin__
list
p34
(lp35
S'-fno-exceptions'
p36
atp37
Rp38
tp39
a(S'arduino_variants_dir'
p40
S'/usr/share/arduino/hardware/arduino/variants'
p41
tp42
a(S'avrdude'
p43
S'/usr/share/arduino/hardware/tools/avrdude'
p44
tp45
a(S'avrdude.conf'
p46
S'/usr/share/arduino/hardware/tools/avrdude.conf'
p47
tp48
a(S'names'
p49
(dp50
S'cpp'
p51
S'%s.cpp'
p52
sS'obj'
p53
S'%s.o'
p54
sS'deps'
p55
S'%s.d'
p56
sS'lib'
p57
S'lib%s.a'
p58
stp59
a(S'cflags'
p60
g32
(g33
g34
(lp61
S'-mmcu=atmega328p'
p62
aS'-ffunction-sections'
p63
aS'-fdata-sections'
p64
aS'-g'
p65
aS'-Os'
p66
aS'-w'
p67
aS'-DF_CPU=16000000L'
p68
aS'-DARDUINO=100'
p69
aS'-I/usr/share/arduino/hardware/arduino/cores/arduino'
p70
aS'-I/usr/share/arduino/hardware/arduino/variants/standard'
p71
aS'-Ilib/ros_lib'
p72
aS'-Ilib/ros_lib/tf'
p73
aS'-Ilib/ros_lib/geometry_msgs'
p74
aS'-Ilib/ros_lib/std_msgs'
p75
aS'-Ilib/ros_lib/nav_msgs'
p76
aS'-Ilib/ros_lib/sensor_msgs'
p77
aS'-Ilib/ros_lib/rosserial_arduino'
p78
aS'-Ilib/ros_lib/rosserial_msgs'
p79
aS'-Ilib/ros_lib/tests'
p80
aS'-Ilib/ros_lib/ros'
p81
aS'-Ilib/ros_lib/diagnostic_msgs'
p82
aS'-Ilib/ros_lib/tests/array_test'
p83
aS'-Ilib/ros_lib/tests/float64_test'
p84
aS'-Ilib/ros_lib/tests/time_test'
p85
aS'-Ilib/LSM303-master'
p86
aS'-Ilib/LSM303-master/LSM303'
p87
aS'-I/usr/share/arduino/libraries/Wire'
p88
aS'-I/usr/share/arduino/libraries/Wire/utility'
p89
aS'-I/usr/share/arduino/hardware/arduino/cores/arduino'
p90
atp91
Rp92
tp93
a(S'elfflags'
p94
g32
(g33
g34
(lp95
g66
aS'-Wl,--gc-sections'
p96
ag62
atp97
Rp98
tp99
a(S'arduino_lib_version'
p100
g32
(cino.environment
Version
p101
c__builtin__
tuple
p102
(I1
I0
tp103
tp104
Rp105
tp106
a(S'objcopy'
p107
S'/usr/bin/avr-objcopy'
p108
tp109
a(S'ar'
p110
S'/usr/bin/avr-ar'
p111
tp112
a(S'board_models'
p113
cino.environment
BoardModels
p114
((lp115
(lp116
S'uno'
p117
a(dp118
S'bootloader'
p119
(dp120
S'extended_fuses'
p121
S'0x05'
p122
sS'high_fuses'
p123
S'0xde'
p124
sS'low_fuses'
p125
S'0xff'
p126
sS'lock_bits'
p127
S'0x0F'
p128
sS'file'
p129
S'optiboot_atmega328.hex'
p130
sS'path'
p131
S'optiboot'
p132
sS'unlock_bits'
p133
S'0x3F'
p134
ssS'upload'
p135
(dp136
S'speed'
p137
S'115200'
p138
sS'maximum_size'
p139
S'32256'
p140
sS'protocol'
p141
S'arduino'
p142
ssS'name'
p143
S'Arduino Uno'
p144
sS'build'
p145
(dp146
S'core'
p147
S'arduino'
p148
sS'mcu'
p149
S'atmega328p'
p150
sS'f_cpu'
p151
S'16000000L'
p152
sS'variant'
p153
S'standard'
p154
ssaa(lp155
S'atmega328'
p156
a(dp157
S'bootloader'
p158
(dp159
S'extended_fuses'
p160
S'0x05'
p161
sS'high_fuses'
p162
S'0xDA'
p163
sS'low_fuses'
p164
S'0xFF'
p165
sS'lock_bits'
p166
S'0x0F'
p167
sS'file'
p168
S'ATmegaBOOT_168_atmega328.hex'
p169
sS'path'
p170
S'atmega'
p171
sS'unlock_bits'
p172
S'0x3F'
p173
ssS'upload'
p174
(dp175
S'speed'
p176
S'57600'
p177
sS'maximum_size'
p178
S'30720'
p179
sS'protocol'
p180
S'arduino'
p181
ssS'name'
p182
S'Arduino Duemilanove w/ ATmega328'
p183
sS'build'
p184
(dp185
S'core'
p186
S'arduino'
p187
sS'mcu'
p188
S'atmega328p'
p189
sS'f_cpu'
p190
S'16000000L'
p191
sS'variant'
p192
S'standard'
p193
ssaa(lp194
S'diecimila'
p195
a(dp196
S'bootloader'
p197
(dp198
S'extended_fuses'
p199
S'0x00'
p200
sS'high_fuses'
p201
S'0xdd'
p202
sS'low_fuses'
p203
S'0xff'
p204
sS'lock_bits'
p205
S'0x0F'
p206
sS'file'
p207
S'ATmegaBOOT_168_diecimila.hex'
p208
sS'path'
p209
S'atmega'
p210
sS'unlock_bits'
p211
S'0x3F'
p212
ssS'upload'
p213
(dp214
S'speed'
p215
S'19200'
p216
sS'maximum_size'
p217
S'14336'
p218
sS'protocol'
p219
S'arduino'
p220
ssS'name'
p221
S'Arduino Diecimila or Duemilanove w/ ATmega168'
p222
sS'build'
p223
(dp224
S'core'
p225
S'arduino'
p226
sS'mcu'
p227
S'atmega168'
p228
sS'f_cpu'
p229
S'16000000L'
p230
sS'variant'
p231
S'standard'
p232
ssaa(lp233
S'nano328'
p234
a(dp235
S'bootloader'
p236
(dp237
S'extended_fuses'
p238
S'0x05'
p239
sS'high_fuses'
p240
S'0xDA'
p241
sS'low_fuses'
p242
S'0xFF'
p243
sS'lock_bits'
p244
S'0x0F'
p245
sS'file'
p246
S'ATmegaBOOT_168_atmega328.hex'
p247
sS'path'
p248
S'atmega'
p249
sS'unlock_bits'
p250
S'0x3F'
p251
ssS'upload'
p252
(dp253
S'speed'
p254
S'57600'
p255
sS'maximum_size'
p256
S'30720'
p257
sS'protocol'
p258
S'arduino'
p259
ssS'name'
p260
S'Arduino Nano w/ ATmega328'
p261
sS'build'
p262
(dp263
S'core'
p264
S'arduino'
p265
sS'mcu'
p266
S'atmega328p'
p267
sS'f_cpu'
p268
S'16000000L'
p269
sS'variant'
p270
S'eightanaloginputs'
p271
ssaa(lp272
S'nano'
p273
a(dp274
S'bootloader'
p275
(dp276
S'extended_fuses'
p277
S'0x00'
p278
sS'high_fuses'
p279
S'0xdd'
p280
sS'low_fuses'
p281
S'0xff'
p282
sS'lock_bits'
p283
S'0x0F'
p284
sS'file'
p285
S'ATmegaBOOT_168_diecimila.hex'
p286
sS'path'
p287
S'atmega'
p288
sS'unlock_bits'
p289
S'0x3F'
p290
ssS'upload'
p291
(dp292
S'speed'
p293
S'19200'
p294
sS'maximum_size'
p295
S'14336'
p296
sS'protocol'
p297
S'arduino'
p298
ssS'name'
p299
S'Arduino Nano w/ ATmega168'
p300
sS'build'
p301
(dp302
S'core'
p303
S'arduino'
p304
sS'mcu'
p305
S'atmega168'
p306
sS'f_cpu'
p307
S'16000000L'
p308
sS'variant'
p309
S'eightanaloginputs'
p310
ssaa(lp311
S'mega2560'
p312
a(dp313
S'bootloader'
p314
(dp315
S'extended_fuses'
p316
S'0xFD'
p317
sS'high_fuses'
p318
S'0xD8'
p319
sS'low_fuses'
p320
S'0xFF'
p321
sS'lock_bits'
p322
S'0x0F'
p323
sS'file'
p324
S'stk500boot_v2_mega2560.hex'
p325
sS'path'
p326
S'stk500v2'
p327
sS'unlock_bits'
p328
S'0x3F'
p329
ssS'upload'
p330
(dp331
S'speed'
p332
S'115200'
p333
sS'maximum_size'
p334
S'258048'
p335
sS'protocol'
p336
S'stk500v2'
p337
ssS'name'
p338
S'Arduino Mega 2560 or Mega ADK'
p339
sS'build'
p340
(dp341
S'core'
p342
S'arduino'
p343
sS'mcu'
p344
S'atmega2560'
p345
sS'f_cpu'
p346
S'16000000L'
p347
sS'variant'
p348
S'mega'
p349
ssaa(lp350
S'mega'
p351
a(dp352
S'bootloader'
p353
(dp354
S'extended_fuses'
p355
S'0xF5'
p356
sS'high_fuses'
p357
S'0xDA'
p358
sS'low_fuses'
p359
S'0xFF'
p360
sS'lock_bits'
p361
S'0x0F'
p362
sS'file'
p363
S'ATmegaBOOT_168_atmega1280.hex'
p364
sS'path'
p365
S'atmega'
p366
sS'unlock_bits'
p367
S'0x3F'
p368
ssS'upload'
p369
(dp370
S'speed'
p371
S'57600'
p372
sS'maximum_size'
p373
S'126976'
p374
sS'protocol'
p375
S'arduino'
p376
ssS'name'
p377
S'Arduino Mega (ATmega1280)'
p378
sS'build'
p379
(dp380
S'core'
p381
S'arduino'
p382
sS'mcu'
p383
S'atmega1280'
p384
sS'f_cpu'
p385
S'16000000L'
p386
sS'variant'
p387
S'mega'
p388
ssaa(lp389
S'mini328'
p390
a(dp391
S'bootloader'
p392
(dp393
S'extended_fuses'
p394
S'0x05'
p395
sS'high_fuses'
p396
S'0xd8'
p397
sS'low_fuses'
p398
S'0xff'
p399
sS'lock_bits'
p400
S'0x0F'
p401
sS'file'
p402
S'optiboot_atmega328-Mini.hex'
p403
sS'path'
p404
S'optiboot'
p405
sS'unlock_bits'
p406
S'0x3F'
p407
ssS'upload'
p408
(dp409
S'speed'
p410
S'115200'
p411
sS'maximum_size'
p412
S'28672'
p413
sS'protocol'
p414
S'stk500'
p415
ssS'name'
p416
S'Arduino Mini w/ ATmega328'
p417
sS'build'
p418
(dp419
S'core'
p420
S'arduino'
p421
sS'mcu'
p422
S'atmega328p'
p423
sS'f_cpu'
p424
S'16000000L'
p425
sS'variant'
p426
S'eightanaloginputs'
p427
ssaa(lp428
S'mini'
p429
a(dp430
S'bootloader'
p431
(dp432
S'extended_fuses'
p433
S'0x00'
p434
sS'high_fuses'
p435
S'0xdd'
p436
sS'low_fuses'
p437
S'0xff'
p438
sS'lock_bits'
p439
S'0x0F'
p440
sS'file'
p441
S'ATmegaBOOT_168_ng.hex'
p442
sS'path'
p443
S'atmega'
p444
sS'unlock_bits'
p445
S'0x3F'
p446
ssS'upload'
p447
(dp448
S'speed'
p449
S'19200'
p450
sS'maximum_size'
p451
S'14336'
p452
sS'protocol'
p453
S'arduino'
p454
ssS'name'
p455
S'Arduino Mini w/ ATmega168'
p456
sS'build'
p457
(dp458
S'core'
p459
S'arduino'
p460
sS'mcu'
p461
S'atmega168'
p462
sS'f_cpu'
p463
S'16000000L'
p464
sS'variant'
p465
S'eightanaloginputs'
p466
ssaa(lp467
S'ethernet'
p468
a(dp469
S'bootloader'
p470
(dp471
S'extended_fuses'
p472
S'0x05'
p473
sS'high_fuses'
p474
S'0xde'
p475
sS'low_fuses'
p476
S'0xff'
p477
sS'lock_bits'
p478
S'0x0F'
p479
sS'file'
p480
S'optiboot_atmega328.hex'
p481
sS'path'
p482
S'optiboot'
p483
sS'unlock_bits'
p484
S'0x3F'
p485
ssS'upload'
p486
(dp487
S'speed'
p488
S'115200'
p489
sS'maximum_size'
p490
S'32256'
p491
sS'protocol'
p492
S'arduino'
p493
ssS'name'
p494
S'Arduino Ethernet'
p495
sS'build'
p496
(dp497
S'f_cpu'
p498
S'16000000L'
p499
sS'mcu'
p500
S'atmega328p'
p501
sS'variant'
p502
S'standard'
p503
sS'core'
p504
S'arduino'
p505
ssaa(lp506
S'fio'
p507
a(dp508
S'bootloader'
p509
(dp510
S'extended_fuses'
p511
S'0x05'
p512
sS'high_fuses'
p513
S'0xDA'
p514
sS'low_fuses'
p515
S'0xFF'
p516
sS'lock_bits'
p517
S'0x0F'
p518
sS'file'
p519
S'ATmegaBOOT_168_atmega328_pro_8MHz.hex'
p520
sS'path'
p521
S'arduino:atmega'
p522
sS'unlock_bits'
p523
S'0x3F'
p524
ssS'upload'
p525
(dp526
S'speed'
p527
S'57600'
p528
sS'maximum_size'
p529
S'30720'
p530
sS'protocol'
p531
S'arduino'
p532
ssS'name'
p533
S'Arduino Fio'
p534
sS'build'
p535
(dp536
S'core'
p537
S'arduino'
p538
sS'mcu'
p539
S'atmega328p'
p540
sS'f_cpu'
p541
S'8000000L'
p542
sS'variant'
p543
S'eightanaloginputs'
p544
ssaa(lp545
S'bt328'
p546
a(dp547
S'bootloader'
p548
(dp549
S'extended_fuses'
p550
S'0x05'
p551
sS'high_fuses'
p552
S'0xd8'
p553
sS'low_fuses'
p554
S'0xff'
p555
sS'lock_bits'
p556
S'0x0F'
p557
sS'file'
p558
S'ATmegaBOOT_168_atmega328_bt.hex'
p559
sS'path'
p560
S'bt'
p561
sS'unlock_bits'
p562
S'0x3F'
p563
ssS'upload'
p564
(dp565
S'speed'
p566
S'19200'
p567
sS'maximum_size'
p568
S'28672'
p569
sS'protocol'
p570
S'arduino'
p571
sS'disable_flushing'
p572
S'true'
p573
ssS'name'
p574
S'Arduino BT w/ ATmega328'
p575
sS'build'
p576
(dp577
S'core'
p578
S'arduino'
p579
sS'mcu'
p580
S'atmega328p'
p581
sS'f_cpu'
p582
S'16000000L'
p583
sS'variant'
p584
S'eightanaloginputs'
p585
ssaa(lp586
S'bt'
p587
a(dp588
S'bootloader'
p589
(dp590
S'extended_fuses'
p591
S'0x00'
p592
sS'high_fuses'
p593
S'0xdd'
p594
sS'low_fuses'
p595
S'0xff'
p596
sS'lock_bits'
p597
S'0x0F'
p598
sS'file'
p599
S'ATmegaBOOT_168.hex'
p600
sS'path'
p601
S'bt'
p602
sS'unlock_bits'
p603
S'0x3F'
p604
ssS'upload'
p605
(dp606
S'speed'
p607
S'19200'
p608
sS'maximum_size'
p609
S'14336'
p610
sS'protocol'
p611
S'arduino'
p612
sS'disable_flushing'
p613
S'true'
p614
ssS'name'
p615
S'Arduino BT w/ ATmega168'
p616
sS'build'
p617
(dp618
S'core'
p619
S'arduino'
p620
sS'mcu'
p621
S'atmega168'
p622
sS'f_cpu'
p623
S'16000000L'
p624
sS'variant'
p625
S'eightanaloginputs'
p626
ssaa(lp627
S'lilypad328'
p628
a(dp629
S'bootloader'
p630
(dp631
S'extended_fuses'
p632
S'0x05'
p633
sS'high_fuses'
p634
S'0xDA'
p635
sS'low_fuses'
p636
S'0xFF'
p637
sS'lock_bits'
p638
S'0x0F'
p639
sS'file'
p640
S'ATmegaBOOT_168_atmega328_pro_8MHz.hex'
p641
sS'path'
p642
S'atmega'
p643
sS'unlock_bits'
p644
S'0x3F'
p645
ssS'upload'
p646
(dp647
S'speed'
p648
S'57600'
p649
sS'maximum_size'
p650
S'30720'
p651
sS'protocol'
p652
S'arduino'
p653
ssS'name'
p654
S'LilyPad Arduino w/ ATmega328'
p655
sS'build'
p656
(dp657
S'core'
p658
S'arduino'
p659
sS'mcu'
p660
S'atmega328p'
p661
sS'f_cpu'
p662
S'8000000L'
p663
sS'variant'
p664
S'standard'
p665
ssaa(lp666
S'lilypad'
p667
a(dp668
S'bootloader'
p669
(dp670
S'extended_fuses'
p671
S'0x00'
p672
sS'high_fuses'
p673
S'0xdd'
p674
sS'low_fuses'
p675
S'0xe2'
p676
sS'lock_bits'
p677
S'0x0F'
p678
sS'file'
p679
S'LilyPadBOOT_168.hex'
p680
sS'path'
p681
S'lilypad'
p682
sS'unlock_bits'
p683
S'0x3F'
p684
ssS'upload'
p685
(dp686
S'speed'
p687
S'19200'
p688
sS'maximum_size'
p689
S'14336'
p690
sS'protocol'
p691
S'arduino'
p692
ssS'name'
p693
S'LilyPad Arduino w/ ATmega168'
p694
sS'build'
p695
(dp696
S'core'
p697
S'arduino'
p698
sS'mcu'
p699
S'atmega168'
p700
sS'f_cpu'
p701
S'8000000L'
p702
sS'variant'
p703
S'standard'
p704
ssaa(lp705
S'pro5v328'
p706
a(dp707
S'bootloader'
p708
(dp709
S'extended_fuses'
p710
S'0x05'
p711
sS'high_fuses'
p712
S'0xDA'
p713
sS'low_fuses'
p714
S'0xFF'
p715
sS'lock_bits'
p716
S'0x0F'
p717
sS'file'
p718
S'ATmegaBOOT_168_atmega328.hex'
p719
sS'path'
p720
S'atmega'
p721
sS'unlock_bits'
p722
S'0x3F'
p723
ssS'upload'
p724
(dp725
S'speed'
p726
S'57600'
p727
sS'maximum_size'
p728
S'30720'
p729
sS'protocol'
p730
S'arduino'
p731
ssS'name'
p732
S'Arduino Pro or Pro Mini (5V, 16 MHz) w/ ATmega328'
p733
sS'build'
p734
(dp735
S'core'
p736
S'arduino'
p737
sS'mcu'
p738
S'atmega328p'
p739
sS'f_cpu'
p740
S'16000000L'
p741
sS'variant'
p742
S'standard'
p743
ssaa(lp744
S'pro5v'
p745
a(dp746
S'bootloader'
p747
(dp748
S'extended_fuses'
p749
S'0x00'
p750
sS'high_fuses'
p751
S'0xdd'
p752
sS'low_fuses'
p753
S'0xff'
p754
sS'lock_bits'
p755
S'0x0F'
p756
sS'file'
p757
S'ATmegaBOOT_168_diecimila.hex'
p758
sS'path'
p759
S'atmega'
p760
sS'unlock_bits'
p761
S'0x3F'
p762
ssS'upload'
p763
(dp764
S'speed'
p765
S'19200'
p766
sS'maximum_size'
p767
S'14336'
p768
sS'protocol'
p769
S'arduino'
p770
ssS'name'
p771
S'Arduino Pro or Pro Mini (5V, 16 MHz) w/ ATmega168'
p772
sS'build'
p773
(dp774
S'core'
p775
S'arduino'
p776
sS'mcu'
p777
S'atmega168'
p778
sS'f_cpu'
p779
S'16000000L'
p780
sS'variant'
p781
S'standard'
p782
ssaa(lp783
S'pro328'
p784
a(dp785
S'bootloader'
p786
(dp787
S'extended_fuses'
p788
S'0x05'
p789
sS'high_fuses'
p790
S'0xDA'
p791
sS'low_fuses'
p792
S'0xFF'
p793
sS'lock_bits'
p794
S'0x0F'
p795
sS'file'
p796
S'ATmegaBOOT_168_atmega328_pro_8MHz.hex'
p797
sS'path'
p798
S'atmega'
p799
sS'unlock_bits'
p800
S'0x3F'
p801
ssS'upload'
p802
(dp803
S'speed'
p804
S'57600'
p805
sS'maximum_size'
p806
S'30720'
p807
sS'protocol'
p808
S'arduino'
p809
ssS'name'
p810
S'Arduino Pro or Pro Mini (3.3V, 8 MHz) w/ ATmega328'
p811
sS'build'
p812
(dp813
S'core'
p814
S'arduino'
p815
sS'mcu'
p816
S'atmega328p'
p817
sS'f_cpu'
p818
S'8000000L'
p819
sS'variant'
p820
S'standard'
p821
ssaa(lp822
S'pro'
p823
a(dp824
S'bootloader'
p825
(dp826
S'extended_fuses'
p827
S'0x00'
p828
sS'high_fuses'
p829
S'0xdd'
p830
sS'low_fuses'
p831
S'0xc6'
p832
sS'lock_bits'
p833
S'0x0F'
p834
sS'file'
p835
S'ATmegaBOOT_168_pro_8MHz.hex'
p836
sS'path'
p837
S'atmega'
p838
sS'unlock_bits'
p839
S'0x3F'
p840
ssS'upload'
p841
(dp842
S'speed'
p843
S'19200'
p844
sS'maximum_size'
p845
S'14336'
p846
sS'protocol'
p847
S'arduino'
p848
ssS'name'
p849
S'Arduino Pro or Pro Mini (3.3V, 8 MHz) w/ ATmega168'
p850
sS'build'
p851
(dp852
S'core'
p853
S'arduino'
p854
sS'mcu'
p855
S'atmega168'
p856
sS'f_cpu'
p857
S'8000000L'
p858
sS'variant'
p859
S'standard'
p860
ssaa(lp861
S'atmega168'
p862
a(dp863
S'bootloader'
p864
(dp865
S'extended_fuses'
p866
S'0x00'
p867
sS'high_fuses'
p868
S'0xdd'
p869
sS'low_fuses'
p870
S'0xff'
p871
sS'lock_bits'
p872
S'0x0F'
p873
sS'file'
p874
S'ATmegaBOOT_168_ng.hex'
p875
sS'path'
p876
S'atmega'
p877
sS'unlock_bits'
p878
S'0x3F'
p879
ssS'upload'
p880
(dp881
S'speed'
p882
S'19200'
p883
sS'maximum_size'
p884
S'14336'
p885
sS'protocol'
p886
S'arduino'
p887
ssS'name'
p888
S'Arduino NG or older w/ ATmega168'
p889
sS'build'
p890
(dp891
S'core'
p892
S'arduino'
p893
sS'mcu'
p894
S'atmega168'
p895
sS'f_cpu'
p896
S'16000000L'
p897
sS'variant'
p898
S'standard'
p899
ssaa(lp900
S'atmega8'
p901
a(dp902
S'bootloader'
p903
(dp904
S'high_fuses'
p905
S'0xca'
p906
sS'low_fuses'
p907
S'0xdf'
p908
sS'lock_bits'
p909
S'0x0F'
p910
sS'file'
p911
S'ATmegaBOOT.hex'
p912
sS'path'
p913
S'atmega8'
p914
sS'unlock_bits'
p915
S'0x3F'
p916
ssS'upload'
p917
(dp918
S'speed'
p919
S'19200'
p920
sS'maximum_size'
p921
S'7168'
p922
sS'protocol'
p923
S'arduino'
p924
ssS'name'
p925
S'Arduino NG or older w/ ATmega8'
p926
sS'build'
p927
(dp928
S'core'
p929
S'arduino'
p930
sS'mcu'
p931
S'atmega8'
p932
sS'f_cpu'
p933
S'16000000L'
p934
sS'variant'
p935
S'standard'
p936
ssaatp937
Rp938
(dp939
S'default'
p940
S'uno'
p941
sbtp942
a(S'deps'
p943
g32
(g33
g34
(lp944
S'.build/uno/src/dependencies.d'
p945
aS'.build/uno/arduino/dependencies.d'
p946
aS'.build/uno/ros_lib/dependencies.d'
p947
aS'.build/uno/LSM303-master/dependencies.d'
p948
aS'.build/uno/Wire/dependencies.d'
p949
atp950
Rp951
tp952
a.