(lp0
(S'elfflags'
p1
ccopy_reg
_reconstructor
p2
(cino.utils
SpaceList
p3
c__builtin__
list
p4
(lp5
S'-Os'
p6
aS'-Wl,--gc-sections'
p7
aS'-mmcu=atmega328p'
p8
atp9
Rp10
tp11
a(S'version.txt'
p12
S'/usr/share/arduino/lib/version.txt'
p13
tp14
a(S'used_libs'
p15
(lp16
S'lib/ros_lib'
p17
aS'lib/LSM303-master'
p18
aS'/usr/share/arduino/libraries/Wire'
p19
aS'/usr/share/arduino/hardware/arduino/cores/arduino'
p20
atp21
a(S'cc'
p22
S'/usr/bin/avr-gcc'
p23
tp24
a(S'stty'
p25
S'/bin/stty'
p26
tp27
a(S'avrdude.conf'
p28
S'/usr/share/arduino/hardware/tools/avrdude.conf'
p29
tp30
a(S'cflags'
p31
g2
(g3
g4
(lp32
g8
aS'-ffunction-sections'
p33
aS'-fdata-sections'
p34
aS'-g'
p35
ag6
aS'-w'
p36
aS'-DF_CPU=16000000L'
p37
aS'-DARDUINO=100'
p38
aS'-I/usr/share/arduino/hardware/arduino/cores/arduino'
p39
aS'-I/usr/share/arduino/hardware/arduino/variants/standard'
p40
aS'-Ilib/ros_lib'
p41
aS'-Ilib/ros_lib/ros'
p42
aS'-Ilib/ros_lib/nav_msgs'
p43
aS'-Ilib/ros_lib/std_msgs'
p44
aS'-Ilib/ros_lib/tests'
p45
aS'-Ilib/ros_lib/rosserial_arduino'
p46
aS'-Ilib/ros_lib/geometry_msgs'
p47
aS'-Ilib/ros_lib/sensor_msgs'
p48
aS'-Ilib/ros_lib/tf'
p49
aS'-Ilib/ros_lib/rosserial_msgs'
p50
aS'-Ilib/ros_lib/diagnostic_msgs'
p51
aS'-Ilib/ros_lib/tests/time_test'
p52
aS'-Ilib/ros_lib/tests/float64_test'
p53
aS'-Ilib/ros_lib/tests/array_test'
p54
aS'-Ilib/LSM303-master'
p55
aS'-Ilib/LSM303-master/LSM303'
p56
aS'-I/usr/share/arduino/libraries/Wire'
p57
aS'-I/usr/share/arduino/libraries/Wire/utility'
p58
aS'-I/usr/share/arduino/hardware/arduino/cores/arduino'
p59
atp60
Rp61
tp62
a(S'build_dir'
p63
S'.build/uno'
p64
tp65
a(S'arduino_core_dir'
p66
g20
tp67
a(S'boards.txt'
p68
S'/usr/share/arduino/hardware/arduino/boards.txt'
p69
tp70
a(S'cxxflags'
p71
g2
(g3
g4
(lp72
S'-fno-exceptions'
p73
atp74
Rp75
tp76
a(S'arduino_variants_dir'
p77
S'/usr/share/arduino/hardware/arduino/variants'
p78
tp79
a(S'avrdude'
p80
S'/usr/share/arduino/hardware/tools/avrdude'
p81
tp82
a(S'ar'
p83
S'/usr/bin/avr-ar'
p84
tp85
a(S'names'
p86
(dp87
S'cpp'
p88
S'%s.cpp'
p89
sS'obj'
p90
S'%s.o'
p91
sS'lib'
p92
S'lib%s.a'
p93
sS'deps'
p94
S'%s.d'
p95
stp96
a(g94
g2
(g3
g4
(lp97
S'.build/uno/src/dependencies.d'
p98
aS'.build/uno/arduino/dependencies.d'
p99
aS'.build/uno/ros_lib/dependencies.d'
p100
aS'.build/uno/LSM303-master/dependencies.d'
p101
aS'.build/uno/Wire/dependencies.d'
p102
atp103
Rp104
tp105
a(S'arduino_libraries_dir'
p106
S'/usr/share/arduino/libraries'
p107
tp108
a(S'arduino_lib_version'
p109
g2
(cino.environment
Version
p110
c__builtin__
tuple
p111
(I1
I0
tp112
tp113
Rp114
tp115
a(S'objcopy'
p116
S'/usr/bin/avr-objcopy'
p117
tp118
a(S'board_models'
p119
cino.environment
BoardModels
p120
((lp121
(lp122
S'uno'
p123
a(dp124
S'bootloader'
p125
(dp126
S'extended_fuses'
p127
S'0x05'
p128
sS'high_fuses'
p129
S'0xde'
p130
sS'low_fuses'
p131
S'0xff'
p132
sS'lock_bits'
p133
S'0x0F'
p134
sS'file'
p135
S'optiboot_atmega328.hex'
p136
sS'path'
p137
S'optiboot'
p138
sS'unlock_bits'
p139
S'0x3F'
p140
ssS'upload'
p141
(dp142
S'protocol'
p143
S'arduino'
p144
sS'maximum_size'
p145
S'32256'
p146
sS'speed'
p147
S'115200'
p148
ssS'build'
p149
(dp150
S'core'
p151
S'arduino'
p152
sS'mcu'
p153
S'atmega328p'
p154
sS'f_cpu'
p155
S'16000000L'
p156
sS'variant'
p157
S'standard'
p158
ssS'name'
p159
S'Arduino Uno'
p160
saa(lp161
S'atmega328'
p162
a(dp163
S'bootloader'
p164
(dp165
S'extended_fuses'
p166
S'0x05'
p167
sS'high_fuses'
p168
S'0xDA'
p169
sS'low_fuses'
p170
S'0xFF'
p171
sS'lock_bits'
p172
S'0x0F'
p173
sS'file'
p174
S'ATmegaBOOT_168_atmega328.hex'
p175
sS'path'
p176
S'atmega'
p177
sS'unlock_bits'
p178
S'0x3F'
p179
ssS'upload'
p180
(dp181
S'protocol'
p182
S'arduino'
p183
sS'maximum_size'
p184
S'30720'
p185
sS'speed'
p186
S'57600'
p187
ssS'build'
p188
(dp189
S'core'
p190
S'arduino'
p191
sS'mcu'
p192
S'atmega328p'
p193
sS'f_cpu'
p194
S'16000000L'
p195
sS'variant'
p196
S'standard'
p197
ssS'name'
p198
S'Arduino Duemilanove w/ ATmega328'
p199
saa(lp200
S'diecimila'
p201
a(dp202
S'bootloader'
p203
(dp204
S'extended_fuses'
p205
S'0x00'
p206
sS'high_fuses'
p207
S'0xdd'
p208
sS'low_fuses'
p209
S'0xff'
p210
sS'lock_bits'
p211
S'0x0F'
p212
sS'file'
p213
S'ATmegaBOOT_168_diecimila.hex'
p214
sS'path'
p215
S'atmega'
p216
sS'unlock_bits'
p217
S'0x3F'
p218
ssS'upload'
p219
(dp220
S'protocol'
p221
S'arduino'
p222
sS'maximum_size'
p223
S'14336'
p224
sS'speed'
p225
S'19200'
p226
ssS'build'
p227
(dp228
S'core'
p229
S'arduino'
p230
sS'mcu'
p231
S'atmega168'
p232
sS'f_cpu'
p233
S'16000000L'
p234
sS'variant'
p235
S'standard'
p236
ssS'name'
p237
S'Arduino Diecimila or Duemilanove w/ ATmega168'
p238
saa(lp239
S'nano328'
p240
a(dp241
S'bootloader'
p242
(dp243
S'extended_fuses'
p244
S'0x05'
p245
sS'high_fuses'
p246
S'0xDA'
p247
sS'low_fuses'
p248
S'0xFF'
p249
sS'lock_bits'
p250
S'0x0F'
p251
sS'file'
p252
S'ATmegaBOOT_168_atmega328.hex'
p253
sS'path'
p254
S'atmega'
p255
sS'unlock_bits'
p256
S'0x3F'
p257
ssS'upload'
p258
(dp259
S'protocol'
p260
S'arduino'
p261
sS'maximum_size'
p262
S'30720'
p263
sS'speed'
p264
S'57600'
p265
ssS'build'
p266
(dp267
S'core'
p268
S'arduino'
p269
sS'mcu'
p270
S'atmega328p'
p271
sS'f_cpu'
p272
S'16000000L'
p273
sS'variant'
p274
S'eightanaloginputs'
p275
ssS'name'
p276
S'Arduino Nano w/ ATmega328'
p277
saa(lp278
S'nano'
p279
a(dp280
S'bootloader'
p281
(dp282
S'extended_fuses'
p283
S'0x00'
p284
sS'high_fuses'
p285
S'0xdd'
p286
sS'low_fuses'
p287
S'0xff'
p288
sS'lock_bits'
p289
S'0x0F'
p290
sS'file'
p291
S'ATmegaBOOT_168_diecimila.hex'
p292
sS'path'
p293
S'atmega'
p294
sS'unlock_bits'
p295
S'0x3F'
p296
ssS'upload'
p297
(dp298
S'protocol'
p299
S'arduino'
p300
sS'maximum_size'
p301
S'14336'
p302
sS'speed'
p303
S'19200'
p304
ssS'build'
p305
(dp306
S'core'
p307
S'arduino'
p308
sS'mcu'
p309
S'atmega168'
p310
sS'f_cpu'
p311
S'16000000L'
p312
sS'variant'
p313
S'eightanaloginputs'
p314
ssS'name'
p315
S'Arduino Nano w/ ATmega168'
p316
saa(lp317
S'mega2560'
p318
a(dp319
S'bootloader'
p320
(dp321
S'extended_fuses'
p322
S'0xFD'
p323
sS'high_fuses'
p324
S'0xD8'
p325
sS'low_fuses'
p326
S'0xFF'
p327
sS'lock_bits'
p328
S'0x0F'
p329
sS'file'
p330
S'stk500boot_v2_mega2560.hex'
p331
sS'path'
p332
S'stk500v2'
p333
sS'unlock_bits'
p334
S'0x3F'
p335
ssS'upload'
p336
(dp337
S'protocol'
p338
S'stk500v2'
p339
sS'maximum_size'
p340
S'258048'
p341
sS'speed'
p342
S'115200'
p343
ssS'build'
p344
(dp345
S'core'
p346
S'arduino'
p347
sS'mcu'
p348
S'atmega2560'
p349
sS'f_cpu'
p350
S'16000000L'
p351
sS'variant'
p352
S'mega'
p353
ssS'name'
p354
S'Arduino Mega 2560 or Mega ADK'
p355
saa(lp356
S'mega'
p357
a(dp358
S'bootloader'
p359
(dp360
S'extended_fuses'
p361
S'0xF5'
p362
sS'high_fuses'
p363
S'0xDA'
p364
sS'low_fuses'
p365
S'0xFF'
p366
sS'lock_bits'
p367
S'0x0F'
p368
sS'file'
p369
S'ATmegaBOOT_168_atmega1280.hex'
p370
sS'path'
p371
S'atmega'
p372
sS'unlock_bits'
p373
S'0x3F'
p374
ssS'upload'
p375
(dp376
S'protocol'
p377
S'arduino'
p378
sS'maximum_size'
p379
S'126976'
p380
sS'speed'
p381
S'57600'
p382
ssS'build'
p383
(dp384
S'core'
p385
S'arduino'
p386
sS'mcu'
p387
S'atmega1280'
p388
sS'f_cpu'
p389
S'16000000L'
p390
sS'variant'
p391
S'mega'
p392
ssS'name'
p393
S'Arduino Mega (ATmega1280)'
p394
saa(lp395
S'leonardo'
p396
a(dp397
S'bootloader'
p398
(dp399
S'extended_fuses'
p400
S'0xcb'
p401
sS'high_fuses'
p402
S'0xd8'
p403
sS'low_fuses'
p404
S'0xff'
p405
sS'lock_bits'
p406
S'0x2F'
p407
sS'file'
p408
S'Caterina-Leonardo.hex'
p409
sS'path'
p410
S'caterina'
p411
sS'unlock_bits'
p412
S'0x3F'
p413
ssS'upload'
p414
(dp415
S'protocol'
p416
S'avr109'
p417
sS'maximum_size'
p418
S'28672'
p419
sS'speed'
p420
S'57600'
p421
sS'disable_flushing'
p422
S'true'
p423
ssS'build'
p424
(dp425
S'core'
p426
S'arduino'
p427
sS'f_cpu'
p428
S'16000000L'
p429
sS'vid'
p430
S'0x2341'
p431
sS'pid'
p432
S'0x8036'
p433
sS'variant'
p434
S'leonardo'
p435
sS'mcu'
p436
S'atmega32u4'
p437
ssS'name'
p438
S'Arduino Leonardo'
p439
saa(lp440
S'mini328'
p441
a(dp442
S'bootloader'
p443
(dp444
S'extended_fuses'
p445
S'0x05'
p446
sS'high_fuses'
p447
S'0xd8'
p448
sS'low_fuses'
p449
S'0xff'
p450
sS'lock_bits'
p451
S'0x0F'
p452
sS'file'
p453
S'optiboot_atmega328-Mini.hex'
p454
sS'path'
p455
S'optiboot'
p456
sS'unlock_bits'
p457
S'0x3F'
p458
ssS'upload'
p459
(dp460
S'protocol'
p461
S'arduino'
p462
sS'maximum_size'
p463
S'28672'
p464
sS'speed'
p465
S'115200'
p466
ssS'build'
p467
(dp468
S'core'
p469
S'arduino'
p470
sS'mcu'
p471
S'atmega328p'
p472
sS'f_cpu'
p473
S'16000000L'
p474
sS'variant'
p475
S'eightanaloginputs'
p476
ssS'name'
p477
S'Arduino Mini w/ ATmega328'
p478
saa(lp479
S'mini'
p480
a(dp481
S'bootloader'
p482
(dp483
S'extended_fuses'
p484
S'0x00'
p485
sS'high_fuses'
p486
S'0xdd'
p487
sS'low_fuses'
p488
S'0xff'
p489
sS'lock_bits'
p490
S'0x0F'
p491
sS'file'
p492
S'ATmegaBOOT_168_ng.hex'
p493
sS'path'
p494
S'atmega'
p495
sS'unlock_bits'
p496
S'0x3F'
p497
ssS'upload'
p498
(dp499
S'protocol'
p500
S'arduino'
p501
sS'maximum_size'
p502
S'14336'
p503
sS'speed'
p504
S'19200'
p505
ssS'build'
p506
(dp507
S'core'
p508
S'arduino'
p509
sS'mcu'
p510
S'atmega168'
p511
sS'f_cpu'
p512
S'16000000L'
p513
sS'variant'
p514
S'eightanaloginputs'
p515
ssS'name'
p516
S'Arduino Mini w/ ATmega168'
p517
saa(lp518
S'ethernet'
p519
a(dp520
S'bootloader'
p521
(dp522
S'extended_fuses'
p523
S'0x05'
p524
sS'high_fuses'
p525
S'0xde'
p526
sS'low_fuses'
p527
S'0xff'
p528
sS'lock_bits'
p529
S'0x0F'
p530
sS'file'
p531
S'optiboot_atmega328.hex'
p532
sS'path'
p533
S'optiboot'
p534
sS'unlock_bits'
p535
S'0x3F'
p536
ssS'upload'
p537
(dp538
S'protocol'
p539
S'arduino'
p540
sS'maximum_size'
p541
S'32256'
p542
sS'speed'
p543
S'115200'
p544
ssS'build'
p545
(dp546
S'variant'
p547
S'standard'
p548
sS'mcu'
p549
S'atmega328p'
p550
sS'f_cpu'
p551
S'16000000L'
p552
sS'core'
p553
S'arduino'
p554
ssS'name'
p555
S'Arduino Ethernet'
p556
saa(lp557
S'fio'
p558
a(dp559
S'bootloader'
p560
(dp561
S'extended_fuses'
p562
S'0x05'
p563
sS'high_fuses'
p564
S'0xDA'
p565
sS'low_fuses'
p566
S'0xFF'
p567
sS'lock_bits'
p568
S'0x0F'
p569
sS'file'
p570
S'ATmegaBOOT_168_atmega328_pro_8MHz.hex'
p571
sS'path'
p572
S'arduino:atmega'
p573
sS'unlock_bits'
p574
S'0x3F'
p575
ssS'upload'
p576
(dp577
S'protocol'
p578
S'arduino'
p579
sS'maximum_size'
p580
S'30720'
p581
sS'speed'
p582
S'57600'
p583
ssS'build'
p584
(dp585
S'core'
p586
S'arduino'
p587
sS'mcu'
p588
S'atmega328p'
p589
sS'f_cpu'
p590
S'8000000L'
p591
sS'variant'
p592
S'eightanaloginputs'
p593
ssS'name'
p594
S'Arduino Fio'
p595
saa(lp596
S'bt328'
p597
a(dp598
S'bootloader'
p599
(dp600
S'extended_fuses'
p601
S'0x05'
p602
sS'high_fuses'
p603
S'0xd8'
p604
sS'low_fuses'
p605
S'0xff'
p606
sS'lock_bits'
p607
S'0x0F'
p608
sS'file'
p609
S'ATmegaBOOT_168_atmega328_bt.hex'
p610
sS'path'
p611
S'bt'
p612
sS'unlock_bits'
p613
S'0x3F'
p614
ssS'upload'
p615
(dp616
S'protocol'
p617
S'arduino'
p618
sS'maximum_size'
p619
S'28672'
p620
sS'speed'
p621
S'19200'
p622
sS'disable_flushing'
p623
S'true'
p624
ssS'build'
p625
(dp626
S'core'
p627
S'arduino'
p628
sS'mcu'
p629
S'atmega328p'
p630
sS'f_cpu'
p631
S'16000000L'
p632
sS'variant'
p633
S'eightanaloginputs'
p634
ssS'name'
p635
S'Arduino BT w/ ATmega328'
p636
saa(lp637
S'bt'
p638
a(dp639
S'bootloader'
p640
(dp641
S'extended_fuses'
p642
S'0x00'
p643
sS'high_fuses'
p644
S'0xdd'
p645
sS'low_fuses'
p646
S'0xff'
p647
sS'lock_bits'
p648
S'0x0F'
p649
sS'file'
p650
S'ATmegaBOOT_168.hex'
p651
sS'path'
p652
S'bt'
p653
sS'unlock_bits'
p654
S'0x3F'
p655
ssS'upload'
p656
(dp657
S'protocol'
p658
S'arduino'
p659
sS'maximum_size'
p660
S'14336'
p661
sS'speed'
p662
S'19200'
p663
sS'disable_flushing'
p664
S'true'
p665
ssS'build'
p666
(dp667
S'core'
p668
S'arduino'
p669
sS'mcu'
p670
S'atmega168'
p671
sS'f_cpu'
p672
S'16000000L'
p673
sS'variant'
p674
S'eightanaloginputs'
p675
ssS'name'
p676
S'Arduino BT w/ ATmega168'
p677
saa(lp678
S'lilypad328'
p679
a(dp680
S'bootloader'
p681
(dp682
S'extended_fuses'
p683
S'0x05'
p684
sS'high_fuses'
p685
S'0xDA'
p686
sS'low_fuses'
p687
S'0xFF'
p688
sS'lock_bits'
p689
S'0x0F'
p690
sS'file'
p691
S'ATmegaBOOT_168_atmega328_pro_8MHz.hex'
p692
sS'path'
p693
S'atmega'
p694
sS'unlock_bits'
p695
S'0x3F'
p696
ssS'upload'
p697
(dp698
S'protocol'
p699
S'arduino'
p700
sS'maximum_size'
p701
S'30720'
p702
sS'speed'
p703
S'57600'
p704
ssS'build'
p705
(dp706
S'core'
p707
S'arduino'
p708
sS'mcu'
p709
S'atmega328p'
p710
sS'f_cpu'
p711
S'8000000L'
p712
sS'variant'
p713
S'standard'
p714
ssS'name'
p715
S'LilyPad Arduino w/ ATmega328'
p716
saa(lp717
S'lilypad'
p718
a(dp719
S'bootloader'
p720
(dp721
S'extended_fuses'
p722
S'0x00'
p723
sS'high_fuses'
p724
S'0xdd'
p725
sS'low_fuses'
p726
S'0xe2'
p727
sS'lock_bits'
p728
S'0x0F'
p729
sS'file'
p730
S'LilyPadBOOT_168.hex'
p731
sS'path'
p732
S'lilypad'
p733
sS'unlock_bits'
p734
S'0x3F'
p735
ssS'upload'
p736
(dp737
S'protocol'
p738
S'arduino'
p739
sS'maximum_size'
p740
S'14336'
p741
sS'speed'
p742
S'19200'
p743
ssS'build'
p744
(dp745
S'core'
p746
S'arduino'
p747
sS'mcu'
p748
S'atmega168'
p749
sS'f_cpu'
p750
S'8000000L'
p751
sS'variant'
p752
S'standard'
p753
ssS'name'
p754
S'LilyPad Arduino w/ ATmega168'
p755
saa(lp756
S'pro5v328'
p757
a(dp758
S'bootloader'
p759
(dp760
S'extended_fuses'
p761
S'0x05'
p762
sS'high_fuses'
p763
S'0xDA'
p764
sS'low_fuses'
p765
S'0xFF'
p766
sS'lock_bits'
p767
S'0x0F'
p768
sS'file'
p769
S'ATmegaBOOT_168_atmega328.hex'
p770
sS'path'
p771
S'atmega'
p772
sS'unlock_bits'
p773
S'0x3F'
p774
ssS'upload'
p775
(dp776
S'protocol'
p777
S'arduino'
p778
sS'maximum_size'
p779
S'30720'
p780
sS'speed'
p781
S'57600'
p782
ssS'build'
p783
(dp784
S'core'
p785
S'arduino'
p786
sS'mcu'
p787
S'atmega328p'
p788
sS'f_cpu'
p789
S'16000000L'
p790
sS'variant'
p791
S'standard'
p792
ssS'name'
p793
S'Arduino Pro or Pro Mini (5V, 16 MHz) w/ ATmega328'
p794
saa(lp795
S'pro5v'
p796
a(dp797
S'bootloader'
p798
(dp799
S'extended_fuses'
p800
S'0x00'
p801
sS'high_fuses'
p802
S'0xdd'
p803
sS'low_fuses'
p804
S'0xff'
p805
sS'lock_bits'
p806
S'0x0F'
p807
sS'file'
p808
S'ATmegaBOOT_168_diecimila.hex'
p809
sS'path'
p810
S'atmega'
p811
sS'unlock_bits'
p812
S'0x3F'
p813
ssS'upload'
p814
(dp815
S'protocol'
p816
S'arduino'
p817
sS'maximum_size'
p818
S'14336'
p819
sS'speed'
p820
S'19200'
p821
ssS'build'
p822
(dp823
S'core'
p824
S'arduino'
p825
sS'mcu'
p826
S'atmega168'
p827
sS'f_cpu'
p828
S'16000000L'
p829
sS'variant'
p830
S'standard'
p831
ssS'name'
p832
S'Arduino Pro or Pro Mini (5V, 16 MHz) w/ ATmega168'
p833
saa(lp834
S'pro328'
p835
a(dp836
S'bootloader'
p837
(dp838
S'extended_fuses'
p839
S'0x05'
p840
sS'high_fuses'
p841
S'0xDA'
p842
sS'low_fuses'
p843
S'0xFF'
p844
sS'lock_bits'
p845
S'0x0F'
p846
sS'file'
p847
S'ATmegaBOOT_168_atmega328_pro_8MHz.hex'
p848
sS'path'
p849
S'atmega'
p850
sS'unlock_bits'
p851
S'0x3F'
p852
ssS'upload'
p853
(dp854
S'protocol'
p855
S'arduino'
p856
sS'maximum_size'
p857
S'30720'
p858
sS'speed'
p859
S'57600'
p860
ssS'build'
p861
(dp862
S'core'
p863
S'arduino'
p864
sS'mcu'
p865
S'atmega328p'
p866
sS'f_cpu'
p867
S'8000000L'
p868
sS'variant'
p869
S'standard'
p870
ssS'name'
p871
S'Arduino Pro or Pro Mini (3.3V, 8 MHz) w/ ATmega328'
p872
saa(lp873
S'pro'
p874
a(dp875
S'bootloader'
p876
(dp877
S'extended_fuses'
p878
S'0x00'
p879
sS'high_fuses'
p880
S'0xdd'
p881
sS'low_fuses'
p882
S'0xc6'
p883
sS'lock_bits'
p884
S'0x0F'
p885
sS'file'
p886
S'ATmegaBOOT_168_pro_8MHz.hex'
p887
sS'path'
p888
S'atmega'
p889
sS'unlock_bits'
p890
S'0x3F'
p891
ssS'upload'
p892
(dp893
S'protocol'
p894
S'arduino'
p895
sS'maximum_size'
p896
S'14336'
p897
sS'speed'
p898
S'19200'
p899
ssS'build'
p900
(dp901
S'core'
p902
S'arduino'
p903
sS'mcu'
p904
S'atmega168'
p905
sS'f_cpu'
p906
S'8000000L'
p907
sS'variant'
p908
S'standard'
p909
ssS'name'
p910
S'Arduino Pro or Pro Mini (3.3V, 8 MHz) w/ ATmega168'
p911
saa(lp912
S'atmega168'
p913
a(dp914
S'bootloader'
p915
(dp916
S'extended_fuses'
p917
S'0x00'
p918
sS'high_fuses'
p919
S'0xdd'
p920
sS'low_fuses'
p921
S'0xff'
p922
sS'lock_bits'
p923
S'0x0F'
p924
sS'file'
p925
S'ATmegaBOOT_168_ng.hex'
p926
sS'path'
p927
S'atmega'
p928
sS'unlock_bits'
p929
S'0x3F'
p930
ssS'upload'
p931
(dp932
S'protocol'
p933
S'arduino'
p934
sS'maximum_size'
p935
S'14336'
p936
sS'speed'
p937
S'19200'
p938
ssS'build'
p939
(dp940
S'core'
p941
S'arduino'
p942
sS'mcu'
p943
S'atmega168'
p944
sS'f_cpu'
p945
S'16000000L'
p946
sS'variant'
p947
S'standard'
p948
ssS'name'
p949
S'Arduino NG or older w/ ATmega168'
p950
saa(lp951
S'atmega8'
p952
a(dp953
S'bootloader'
p954
(dp955
S'high_fuses'
p956
S'0xca'
p957
sS'low_fuses'
p958
S'0xdf'
p959
sS'lock_bits'
p960
S'0x0F'
p961
sS'file'
p962
S'ATmegaBOOT.hex'
p963
sS'path'
p964
S'atmega8'
p965
sS'unlock_bits'
p966
S'0x3F'
p967
ssS'upload'
p968
(dp969
S'protocol'
p970
S'arduino'
p971
sS'maximum_size'
p972
S'7168'
p973
sS'speed'
p974
S'19200'
p975
ssS'build'
p976
(dp977
S'core'
p978
S'arduino'
p979
sS'mcu'
p980
S'atmega8'
p981
sS'f_cpu'
p982
S'16000000L'
p983
sS'variant'
p984
S'standard'
p985
ssS'name'
p986
S'Arduino NG or older w/ ATmega8'
p987
saatp988
Rp989
(dp990
S'default'
p991
S'uno'
p992
sbtp993
a(S'cxx'
p994
S'/usr/bin/avr-g++'
p995
tp996
a.