(lp0
(S'cxx'
p1
S'/usr/bin/avr-g++'
p2
tp3
a(S'stty'
p4
S'/bin/stty'
p5
tp6
a(S'version.txt'
p7
S'/usr/share/arduino/lib/version.txt'
p8
tp9
a(S'used_libs'
p10
(lp11
S'lib/ros_lib'
p12
aS'lib/LSM303-master'
p13
aS'/usr/share/arduino/libraries/Wire'
p14
aS'/usr/share/arduino/hardware/arduino/cores/arduino'
p15
atp16
a(S'cc'
p17
S'/usr/bin/avr-gcc'
p18
tp19
a(S'arduino_libraries_dir'
p20
S'/usr/share/arduino/libraries'
p21
tp22
a(S'arduino_core_dir'
p23
g15
tp24
a(S'boards.txt'
p25
S'/usr/share/arduino/hardware/arduino/boards.txt'
p26
tp27
a(S'cxxflags'
p28
ccopy_reg
_reconstructor
p29
(cino.utils
SpaceList
p30
c__builtin__
list
p31
(lp32
S'-fno-exceptions'
p33
atp34
Rp35
tp36
a(S'arduino_variants_dir'
p37
S'/usr/share/arduino/hardware/arduino/variants'
p38
tp39
a(S'avrdude'
p40
S'/usr/share/arduino/hardware/tools/avrdude'
p41
tp42
a(S'avrdude.conf'
p43
S'/usr/share/arduino/hardware/tools/avrdude.conf'
p44
tp45
a(S'names'
p46
(dp47
S'cpp'
p48
S'%s.cpp'
p49
sS'obj'
p50
S'%s.o'
p51
sS'lib'
p52
S'lib%s.a'
p53
sS'deps'
p54
S'%s.d'
p55
stp56
a(S'cflags'
p57
g29
(g30
g31
(lp58
S'-mmcu=atmega328p'
p59
aS'-ffunction-sections'
p60
aS'-fdata-sections'
p61
aS'-g'
p62
aS'-Os'
p63
aS'-w'
p64
aS'-DF_CPU=16000000L'
p65
aS'-DARDUINO=100'
p66
aS'-I/usr/share/arduino/hardware/arduino/cores/arduino'
p67
aS'-I/usr/share/arduino/hardware/arduino/variants/standard'
p68
aS'-Ilib/ros_lib'
p69
aS'-Ilib/ros_lib/diagnostic_msgs'
p70
aS'-Ilib/ros_lib/ros'
p71
aS'-Ilib/ros_lib/std_msgs'
p72
aS'-Ilib/ros_lib/tf'
p73
aS'-Ilib/ros_lib/nav_msgs'
p74
aS'-Ilib/ros_lib/rosserial_arduino'
p75
aS'-Ilib/ros_lib/rosserial_msgs'
p76
aS'-Ilib/ros_lib/tests'
p77
aS'-Ilib/ros_lib/sensor_msgs'
p78
aS'-Ilib/ros_lib/geometry_msgs'
p79
aS'-Ilib/ros_lib/tests/time_test'
p80
aS'-Ilib/ros_lib/tests/array_test'
p81
aS'-Ilib/ros_lib/tests/float64_test'
p82
aS'-Ilib/LSM303-master'
p83
aS'-Ilib/LSM303-master/LSM303'
p84
aS'-I/usr/share/arduino/libraries/Wire'
p85
aS'-I/usr/share/arduino/libraries/Wire/utility'
p86
aS'-I/usr/share/arduino/hardware/arduino/cores/arduino'
p87
atp88
Rp89
tp90
a(S'elfflags'
p91
g29
(g30
g31
(lp92
g63
aS'-Wl,--gc-sections'
p93
ag59
atp94
Rp95
tp96
a(S'arduino_lib_version'
p97
g29
(cino.environment
Version
p98
c__builtin__
tuple
p99
(I1
I0
tp100
tp101
Rp102
tp103
a(S'objcopy'
p104
S'/usr/bin/avr-objcopy'
p105
tp106
a(S'ar'
p107
S'/usr/bin/avr-ar'
p108
tp109
a(S'board_models'
p110
cino.environment
BoardModels
p111
((lp112
(lp113
S'uno'
p114
a(dp115
S'build'
p116
(dp117
S'core'
p118
S'arduino'
p119
sS'mcu'
p120
S'atmega328p'
p121
sS'f_cpu'
p122
S'16000000L'
p123
sS'variant'
p124
S'standard'
p125
ssS'bootloader'
p126
(dp127
S'extended_fuses'
p128
S'0x05'
p129
sS'high_fuses'
p130
S'0xde'
p131
sS'low_fuses'
p132
S'0xff'
p133
sS'lock_bits'
p134
S'0x0F'
p135
sS'file'
p136
S'optiboot_atmega328.hex'
p137
sS'path'
p138
S'optiboot'
p139
sS'unlock_bits'
p140
S'0x3F'
p141
ssS'upload'
p142
(dp143
S'protocol'
p144
S'arduino'
p145
sS'maximum_size'
p146
S'32256'
p147
sS'speed'
p148
S'115200'
p149
ssS'name'
p150
S'Arduino Uno'
p151
saa(lp152
S'alamode'
p153
a(dp154
S'build'
p155
(dp156
S'core'
p157
S'arduino'
p158
sS'mcu'
p159
S'atmega328p'
p160
sS'f_cpu'
p161
S'16000000L'
p162
sS'variant'
p163
S'standard'
p164
ssS'bootloader'
p165
(dp166
S'extended_fuses'
p167
S'0x05'
p168
sS'high_fuses'
p169
S'0xde'
p170
sS'low_fuses'
p171
S'0xff'
p172
sS'lock_bits'
p173
S'0x0F'
p174
sS'file'
p175
S'optiboot_atmega328.hex'
p176
sS'path'
p177
S'optiboot'
p178
sS'unlock_bits'
p179
S'0x3F'
p180
ssS'upload'
p181
(dp182
S'protocol'
p183
S'alamode'
p184
sS'maximum_size'
p185
S'32256'
p186
sS'speed'
p187
S'115200'
p188
ssS'name'
p189
S'AlaMode'
p190
saa(lp191
S'atmega328'
p192
a(dp193
S'build'
p194
(dp195
S'core'
p196
S'arduino'
p197
sS'mcu'
p198
S'atmega328p'
p199
sS'f_cpu'
p200
S'16000000L'
p201
sS'variant'
p202
S'standard'
p203
ssS'bootloader'
p204
(dp205
S'extended_fuses'
p206
S'0x05'
p207
sS'high_fuses'
p208
S'0xDA'
p209
sS'low_fuses'
p210
S'0xFF'
p211
sS'lock_bits'
p212
S'0x0F'
p213
sS'file'
p214
S'ATmegaBOOT_168_atmega328.hex'
p215
sS'path'
p216
S'atmega'
p217
sS'unlock_bits'
p218
S'0x3F'
p219
ssS'upload'
p220
(dp221
S'protocol'
p222
S'arduino'
p223
sS'maximum_size'
p224
S'30720'
p225
sS'speed'
p226
S'57600'
p227
ssS'name'
p228
S'Arduino Duemilanove w/ ATmega328'
p229
saa(lp230
S'diecimila'
p231
a(dp232
S'build'
p233
(dp234
S'core'
p235
S'arduino'
p236
sS'mcu'
p237
S'atmega168'
p238
sS'f_cpu'
p239
S'16000000L'
p240
sS'variant'
p241
S'standard'
p242
ssS'bootloader'
p243
(dp244
S'extended_fuses'
p245
S'0x00'
p246
sS'high_fuses'
p247
S'0xdd'
p248
sS'low_fuses'
p249
S'0xff'
p250
sS'lock_bits'
p251
S'0x0F'
p252
sS'file'
p253
S'ATmegaBOOT_168_diecimila.hex'
p254
sS'path'
p255
S'atmega'
p256
sS'unlock_bits'
p257
S'0x3F'
p258
ssS'upload'
p259
(dp260
S'protocol'
p261
S'arduino'
p262
sS'maximum_size'
p263
S'14336'
p264
sS'speed'
p265
S'19200'
p266
ssS'name'
p267
S'Arduino Diecimila or Duemilanove w/ ATmega168'
p268
saa(lp269
S'nano328'
p270
a(dp271
S'build'
p272
(dp273
S'core'
p274
S'arduino'
p275
sS'mcu'
p276
S'atmega328p'
p277
sS'f_cpu'
p278
S'16000000L'
p279
sS'variant'
p280
S'eightanaloginputs'
p281
ssS'bootloader'
p282
(dp283
S'extended_fuses'
p284
S'0x05'
p285
sS'high_fuses'
p286
S'0xDA'
p287
sS'low_fuses'
p288
S'0xFF'
p289
sS'lock_bits'
p290
S'0x0F'
p291
sS'file'
p292
S'ATmegaBOOT_168_atmega328.hex'
p293
sS'path'
p294
S'atmega'
p295
sS'unlock_bits'
p296
S'0x3F'
p297
ssS'upload'
p298
(dp299
S'protocol'
p300
S'arduino'
p301
sS'maximum_size'
p302
S'30720'
p303
sS'speed'
p304
S'57600'
p305
ssS'name'
p306
S'Arduino Nano w/ ATmega328'
p307
saa(lp308
S'nano'
p309
a(dp310
S'build'
p311
(dp312
S'core'
p313
S'arduino'
p314
sS'mcu'
p315
S'atmega168'
p316
sS'f_cpu'
p317
S'16000000L'
p318
sS'variant'
p319
S'eightanaloginputs'
p320
ssS'bootloader'
p321
(dp322
S'extended_fuses'
p323
S'0x00'
p324
sS'high_fuses'
p325
S'0xdd'
p326
sS'low_fuses'
p327
S'0xff'
p328
sS'lock_bits'
p329
S'0x0F'
p330
sS'file'
p331
S'ATmegaBOOT_168_diecimila.hex'
p332
sS'path'
p333
S'atmega'
p334
sS'unlock_bits'
p335
S'0x3F'
p336
ssS'upload'
p337
(dp338
S'protocol'
p339
S'arduino'
p340
sS'maximum_size'
p341
S'14336'
p342
sS'speed'
p343
S'19200'
p344
ssS'name'
p345
S'Arduino Nano w/ ATmega168'
p346
saa(lp347
S'mega2560'
p348
a(dp349
S'build'
p350
(dp351
S'core'
p352
S'arduino'
p353
sS'mcu'
p354
S'atmega2560'
p355
sS'f_cpu'
p356
S'16000000L'
p357
sS'variant'
p358
S'mega'
p359
ssS'bootloader'
p360
(dp361
S'extended_fuses'
p362
S'0xFD'
p363
sS'high_fuses'
p364
S'0xD8'
p365
sS'low_fuses'
p366
S'0xFF'
p367
sS'lock_bits'
p368
S'0x0F'
p369
sS'file'
p370
S'stk500boot_v2_mega2560.hex'
p371
sS'path'
p372
S'stk500v2'
p373
sS'unlock_bits'
p374
S'0x3F'
p375
ssS'upload'
p376
(dp377
S'protocol'
p378
S'stk500v2'
p379
sS'maximum_size'
p380
S'258048'
p381
sS'speed'
p382
S'115200'
p383
ssS'name'
p384
S'Arduino Mega 2560 or Mega ADK'
p385
saa(lp386
S'mega'
p387
a(dp388
S'build'
p389
(dp390
S'core'
p391
S'arduino'
p392
sS'mcu'
p393
S'atmega1280'
p394
sS'f_cpu'
p395
S'16000000L'
p396
sS'variant'
p397
S'mega'
p398
ssS'bootloader'
p399
(dp400
S'extended_fuses'
p401
S'0xF5'
p402
sS'high_fuses'
p403
S'0xDA'
p404
sS'low_fuses'
p405
S'0xFF'
p406
sS'lock_bits'
p407
S'0x0F'
p408
sS'file'
p409
S'ATmegaBOOT_168_atmega1280.hex'
p410
sS'path'
p411
S'atmega'
p412
sS'unlock_bits'
p413
S'0x3F'
p414
ssS'upload'
p415
(dp416
S'protocol'
p417
S'arduino'
p418
sS'maximum_size'
p419
S'126976'
p420
sS'speed'
p421
S'57600'
p422
ssS'name'
p423
S'Arduino Mega (ATmega1280)'
p424
saa(lp425
S'mini328'
p426
a(dp427
S'build'
p428
(dp429
S'core'
p430
S'arduino'
p431
sS'mcu'
p432
S'atmega328p'
p433
sS'f_cpu'
p434
S'16000000L'
p435
sS'variant'
p436
S'eightanaloginputs'
p437
ssS'bootloader'
p438
(dp439
S'extended_fuses'
p440
S'0x05'
p441
sS'high_fuses'
p442
S'0xd8'
p443
sS'low_fuses'
p444
S'0xff'
p445
sS'lock_bits'
p446
S'0x0F'
p447
sS'file'
p448
S'optiboot_atmega328-Mini.hex'
p449
sS'path'
p450
S'optiboot'
p451
sS'unlock_bits'
p452
S'0x3F'
p453
ssS'upload'
p454
(dp455
S'protocol'
p456
S'stk500'
p457
sS'maximum_size'
p458
S'28672'
p459
sS'speed'
p460
S'115200'
p461
ssS'name'
p462
S'Arduino Mini w/ ATmega328'
p463
saa(lp464
S'mini'
p465
a(dp466
S'build'
p467
(dp468
S'core'
p469
S'arduino'
p470
sS'mcu'
p471
S'atmega168'
p472
sS'f_cpu'
p473
S'16000000L'
p474
sS'variant'
p475
S'eightanaloginputs'
p476
ssS'bootloader'
p477
(dp478
S'extended_fuses'
p479
S'0x00'
p480
sS'high_fuses'
p481
S'0xdd'
p482
sS'low_fuses'
p483
S'0xff'
p484
sS'lock_bits'
p485
S'0x0F'
p486
sS'file'
p487
S'ATmegaBOOT_168_ng.hex'
p488
sS'path'
p489
S'atmega'
p490
sS'unlock_bits'
p491
S'0x3F'
p492
ssS'upload'
p493
(dp494
S'protocol'
p495
S'arduino'
p496
sS'maximum_size'
p497
S'14336'
p498
sS'speed'
p499
S'19200'
p500
ssS'name'
p501
S'Arduino Mini w/ ATmega168'
p502
saa(lp503
S'ethernet'
p504
a(dp505
S'build'
p506
(dp507
S'variant'
p508
S'standard'
p509
sS'mcu'
p510
S'atmega328p'
p511
sS'f_cpu'
p512
S'16000000L'
p513
sS'core'
p514
S'arduino'
p515
ssS'bootloader'
p516
(dp517
S'extended_fuses'
p518
S'0x05'
p519
sS'high_fuses'
p520
S'0xde'
p521
sS'low_fuses'
p522
S'0xff'
p523
sS'lock_bits'
p524
S'0x0F'
p525
sS'file'
p526
S'optiboot_atmega328.hex'
p527
sS'path'
p528
S'optiboot'
p529
sS'unlock_bits'
p530
S'0x3F'
p531
ssS'upload'
p532
(dp533
S'protocol'
p534
S'arduino'
p535
sS'maximum_size'
p536
S'32256'
p537
sS'speed'
p538
S'115200'
p539
ssS'name'
p540
S'Arduino Ethernet'
p541
saa(lp542
S'fio'
p543
a(dp544
S'build'
p545
(dp546
S'core'
p547
S'arduino'
p548
sS'mcu'
p549
S'atmega328p'
p550
sS'f_cpu'
p551
S'8000000L'
p552
sS'variant'
p553
S'eightanaloginputs'
p554
ssS'bootloader'
p555
(dp556
S'extended_fuses'
p557
S'0x05'
p558
sS'high_fuses'
p559
S'0xDA'
p560
sS'low_fuses'
p561
S'0xFF'
p562
sS'lock_bits'
p563
S'0x0F'
p564
sS'file'
p565
S'ATmegaBOOT_168_atmega328_pro_8MHz.hex'
p566
sS'path'
p567
S'arduino:atmega'
p568
sS'unlock_bits'
p569
S'0x3F'
p570
ssS'upload'
p571
(dp572
S'protocol'
p573
S'arduino'
p574
sS'maximum_size'
p575
S'30720'
p576
sS'speed'
p577
S'57600'
p578
ssS'name'
p579
S'Arduino Fio'
p580
saa(lp581
S'bt328'
p582
a(dp583
S'build'
p584
(dp585
S'core'
p586
S'arduino'
p587
sS'mcu'
p588
S'atmega328p'
p589
sS'f_cpu'
p590
S'16000000L'
p591
sS'variant'
p592
S'eightanaloginputs'
p593
ssS'bootloader'
p594
(dp595
S'extended_fuses'
p596
S'0x05'
p597
sS'high_fuses'
p598
S'0xd8'
p599
sS'low_fuses'
p600
S'0xff'
p601
sS'lock_bits'
p602
S'0x0F'
p603
sS'file'
p604
S'ATmegaBOOT_168_atmega328_bt.hex'
p605
sS'path'
p606
S'bt'
p607
sS'unlock_bits'
p608
S'0x3F'
p609
ssS'upload'
p610
(dp611
S'protocol'
p612
S'arduino'
p613
sS'maximum_size'
p614
S'28672'
p615
sS'speed'
p616
S'19200'
p617
sS'disable_flushing'
p618
S'true'
p619
ssS'name'
p620
S'Arduino BT w/ ATmega328'
p621
saa(lp622
S'bt'
p623
a(dp624
S'build'
p625
(dp626
S'core'
p627
S'arduino'
p628
sS'mcu'
p629
S'atmega168'
p630
sS'f_cpu'
p631
S'16000000L'
p632
sS'variant'
p633
S'eightanaloginputs'
p634
ssS'bootloader'
p635
(dp636
S'extended_fuses'
p637
S'0x00'
p638
sS'high_fuses'
p639
S'0xdd'
p640
sS'low_fuses'
p641
S'0xff'
p642
sS'lock_bits'
p643
S'0x0F'
p644
sS'file'
p645
S'ATmegaBOOT_168.hex'
p646
sS'path'
p647
S'bt'
p648
sS'unlock_bits'
p649
S'0x3F'
p650
ssS'upload'
p651
(dp652
S'protocol'
p653
S'arduino'
p654
sS'maximum_size'
p655
S'14336'
p656
sS'speed'
p657
S'19200'
p658
sS'disable_flushing'
p659
S'true'
p660
ssS'name'
p661
S'Arduino BT w/ ATmega168'
p662
saa(lp663
S'lilypad328'
p664
a(dp665
S'build'
p666
(dp667
S'core'
p668
S'arduino'
p669
sS'mcu'
p670
S'atmega328p'
p671
sS'f_cpu'
p672
S'8000000L'
p673
sS'variant'
p674
S'standard'
p675
ssS'bootloader'
p676
(dp677
S'extended_fuses'
p678
S'0x05'
p679
sS'high_fuses'
p680
S'0xDA'
p681
sS'low_fuses'
p682
S'0xFF'
p683
sS'lock_bits'
p684
S'0x0F'
p685
sS'file'
p686
S'ATmegaBOOT_168_atmega328_pro_8MHz.hex'
p687
sS'path'
p688
S'atmega'
p689
sS'unlock_bits'
p690
S'0x3F'
p691
ssS'upload'
p692
(dp693
S'protocol'
p694
S'arduino'
p695
sS'maximum_size'
p696
S'30720'
p697
sS'speed'
p698
S'57600'
p699
ssS'name'
p700
S'LilyPad Arduino w/ ATmega328'
p701
saa(lp702
S'lilypad'
p703
a(dp704
S'build'
p705
(dp706
S'core'
p707
S'arduino'
p708
sS'mcu'
p709
S'atmega168'
p710
sS'f_cpu'
p711
S'8000000L'
p712
sS'variant'
p713
S'standard'
p714
ssS'bootloader'
p715
(dp716
S'extended_fuses'
p717
S'0x00'
p718
sS'high_fuses'
p719
S'0xdd'
p720
sS'low_fuses'
p721
S'0xe2'
p722
sS'lock_bits'
p723
S'0x0F'
p724
sS'file'
p725
S'LilyPadBOOT_168.hex'
p726
sS'path'
p727
S'lilypad'
p728
sS'unlock_bits'
p729
S'0x3F'
p730
ssS'upload'
p731
(dp732
S'protocol'
p733
S'arduino'
p734
sS'maximum_size'
p735
S'14336'
p736
sS'speed'
p737
S'19200'
p738
ssS'name'
p739
S'LilyPad Arduino w/ ATmega168'
p740
saa(lp741
S'pro5v328'
p742
a(dp743
S'build'
p744
(dp745
S'core'
p746
S'arduino'
p747
sS'mcu'
p748
S'atmega328p'
p749
sS'f_cpu'
p750
S'16000000L'
p751
sS'variant'
p752
S'standard'
p753
ssS'bootloader'
p754
(dp755
S'extended_fuses'
p756
S'0x05'
p757
sS'high_fuses'
p758
S'0xDA'
p759
sS'low_fuses'
p760
S'0xFF'
p761
sS'lock_bits'
p762
S'0x0F'
p763
sS'file'
p764
S'ATmegaBOOT_168_atmega328.hex'
p765
sS'path'
p766
S'atmega'
p767
sS'unlock_bits'
p768
S'0x3F'
p769
ssS'upload'
p770
(dp771
S'protocol'
p772
S'arduino'
p773
sS'maximum_size'
p774
S'30720'
p775
sS'speed'
p776
S'57600'
p777
ssS'name'
p778
S'Arduino Pro or Pro Mini (5V, 16 MHz) w/ ATmega328'
p779
saa(lp780
S'pro5v'
p781
a(dp782
S'build'
p783
(dp784
S'core'
p785
S'arduino'
p786
sS'mcu'
p787
S'atmega168'
p788
sS'f_cpu'
p789
S'16000000L'
p790
sS'variant'
p791
S'standard'
p792
ssS'bootloader'
p793
(dp794
S'extended_fuses'
p795
S'0x00'
p796
sS'high_fuses'
p797
S'0xdd'
p798
sS'low_fuses'
p799
S'0xff'
p800
sS'lock_bits'
p801
S'0x0F'
p802
sS'file'
p803
S'ATmegaBOOT_168_diecimila.hex'
p804
sS'path'
p805
S'atmega'
p806
sS'unlock_bits'
p807
S'0x3F'
p808
ssS'upload'
p809
(dp810
S'protocol'
p811
S'arduino'
p812
sS'maximum_size'
p813
S'14336'
p814
sS'speed'
p815
S'19200'
p816
ssS'name'
p817
S'Arduino Pro or Pro Mini (5V, 16 MHz) w/ ATmega168'
p818
saa(lp819
S'pro328'
p820
a(dp821
S'build'
p822
(dp823
S'core'
p824
S'arduino'
p825
sS'mcu'
p826
S'atmega328p'
p827
sS'f_cpu'
p828
S'8000000L'
p829
sS'variant'
p830
S'standard'
p831
ssS'bootloader'
p832
(dp833
S'extended_fuses'
p834
S'0x05'
p835
sS'high_fuses'
p836
S'0xDA'
p837
sS'low_fuses'
p838
S'0xFF'
p839
sS'lock_bits'
p840
S'0x0F'
p841
sS'file'
p842
S'ATmegaBOOT_168_atmega328_pro_8MHz.hex'
p843
sS'path'
p844
S'atmega'
p845
sS'unlock_bits'
p846
S'0x3F'
p847
ssS'upload'
p848
(dp849
S'protocol'
p850
S'arduino'
p851
sS'maximum_size'
p852
S'30720'
p853
sS'speed'
p854
S'57600'
p855
ssS'name'
p856
S'Arduino Pro or Pro Mini (3.3V, 8 MHz) w/ ATmega328'
p857
saa(lp858
S'pro'
p859
a(dp860
S'build'
p861
(dp862
S'core'
p863
S'arduino'
p864
sS'mcu'
p865
S'atmega168'
p866
sS'f_cpu'
p867
S'8000000L'
p868
sS'variant'
p869
S'standard'
p870
ssS'bootloader'
p871
(dp872
S'extended_fuses'
p873
S'0x00'
p874
sS'high_fuses'
p875
S'0xdd'
p876
sS'low_fuses'
p877
S'0xc6'
p878
sS'lock_bits'
p879
S'0x0F'
p880
sS'file'
p881
S'ATmegaBOOT_168_pro_8MHz.hex'
p882
sS'path'
p883
S'atmega'
p884
sS'unlock_bits'
p885
S'0x3F'
p886
ssS'upload'
p887
(dp888
S'protocol'
p889
S'arduino'
p890
sS'maximum_size'
p891
S'14336'
p892
sS'speed'
p893
S'19200'
p894
ssS'name'
p895
S'Arduino Pro or Pro Mini (3.3V, 8 MHz) w/ ATmega168'
p896
saa(lp897
S'atmega168'
p898
a(dp899
S'build'
p900
(dp901
S'core'
p902
S'arduino'
p903
sS'mcu'
p904
S'atmega168'
p905
sS'f_cpu'
p906
S'16000000L'
p907
sS'variant'
p908
S'standard'
p909
ssS'bootloader'
p910
(dp911
S'extended_fuses'
p912
S'0x00'
p913
sS'high_fuses'
p914
S'0xdd'
p915
sS'low_fuses'
p916
S'0xff'
p917
sS'lock_bits'
p918
S'0x0F'
p919
sS'file'
p920
S'ATmegaBOOT_168_ng.hex'
p921
sS'path'
p922
S'atmega'
p923
sS'unlock_bits'
p924
S'0x3F'
p925
ssS'upload'
p926
(dp927
S'protocol'
p928
S'arduino'
p929
sS'maximum_size'
p930
S'14336'
p931
sS'speed'
p932
S'19200'
p933
ssS'name'
p934
S'Arduino NG or older w/ ATmega168'
p935
saa(lp936
S'atmega8'
p937
a(dp938
S'build'
p939
(dp940
S'core'
p941
S'arduino'
p942
sS'mcu'
p943
S'atmega8'
p944
sS'f_cpu'
p945
S'16000000L'
p946
sS'variant'
p947
S'standard'
p948
ssS'bootloader'
p949
(dp950
S'high_fuses'
p951
S'0xca'
p952
sS'low_fuses'
p953
S'0xdf'
p954
sS'lock_bits'
p955
S'0x0F'
p956
sS'file'
p957
S'ATmegaBOOT.hex'
p958
sS'path'
p959
S'atmega8'
p960
sS'unlock_bits'
p961
S'0x3F'
p962
ssS'upload'
p963
(dp964
S'protocol'
p965
S'arduino'
p966
sS'maximum_size'
p967
S'7168'
p968
sS'speed'
p969
S'19200'
p970
ssS'name'
p971
S'Arduino NG or older w/ ATmega8'
p972
saatp973
Rp974
(dp975
S'default'
p976
S'uno'
p977
sbtp978
a(S'deps'
p979
g29
(g30
g31
(lp980
S'.build/alamode/src/dependencies.d'
p981
aS'.build/alamode/arduino/dependencies.d'
p982
aS'.build/alamode/ros_lib/dependencies.d'
p983
aS'.build/alamode/LSM303-master/dependencies.d'
p984
aS'.build/alamode/Wire/dependencies.d'
p985
atp986
Rp987
tp988
a(S'build_dir'
p989
S'.build/alamode'
p990
tp991
a.