(lp0
(S'stty'
p1
S'/bin/stty'
p2
tp3
a(S'version.txt'
p4
S'/usr/share/arduino/lib/version.txt'
p5
tp6
a(S'used_libs'
p7
(lp8
S'lib/Adafruit-GPS-Library-master'
p9
aS'/usr/share/arduino/libraries/Servo'
p10
aS'lib/LSM303-master'
p11
aS'lib/ros_lib'
p12
aS'/usr/share/arduino/libraries/SoftwareSerial'
p13
aS'/usr/share/arduino/libraries/Wire'
p14
aS'/usr/share/arduino/hardware/arduino/cores/arduino'
p15
atp16
a(S'cc'
p17
S'/usr/bin/avr-gcc'
p18
tp19
a(S'arduino_variants_dir'
p20
S'/usr/share/arduino/hardware/arduino/variants'
p21
tp22
a(S'arduino_libraries_dir'
p23
S'/usr/share/arduino/libraries'
p24
tp25
a(S'arduino_core_dir'
p26
g15
tp27
a(S'boards.txt'
p28
S'/usr/share/arduino/hardware/arduino/boards.txt'
p29
tp30
a(S'cxxflags'
p31
ccopy_reg
_reconstructor
p32
(cino.utils
SpaceList
p33
c__builtin__
list
p34
(lp35
S'-fno-exceptions'
p36
atp37
Rp38
tp39
a(S'cxx'
p40
S'/usr/bin/avr-g++'
p41
tp42
a(S'avrdude'
p43
S'/usr/share/arduino/hardware/tools/avrdude'
p44
tp45
a(S'avrdude.conf'
p46
S'/usr/share/arduino/hardware/tools/avrdude.conf'
p47
tp48
a(S'names'
p49
(dp50
S'cpp'
p51
S'%s.cpp'
p52
sS'obj'
p53
S'%s.o'
p54
sS'lib'
p55
S'lib%s.a'
p56
sS'deps'
p57
S'%s.d'
p58
stp59
a(S'cflags'
p60
g32
(g33
g34
(lp61
S'-mmcu=atmega328p'
p62
aS'-ffunction-sections'
p63
aS'-fdata-sections'
p64
aS'-g'
p65
aS'-Os'
p66
aS'-w'
p67
aS'-DF_CPU=16000000L'
p68
aS'-DARDUINO=100'
p69
aS'-I/usr/share/arduino/hardware/arduino/cores/arduino'
p70
aS'-I/usr/share/arduino/hardware/arduino/variants/standard'
p71
aS'-Ilib/Adafruit-GPS-Library-master'
p72
aS'-I/usr/share/arduino/libraries/Servo'
p73
aS'-Ilib/LSM303-master'
p74
aS'-Ilib/LSM303-master/LSM303'
p75
aS'-Ilib/ros_lib'
p76
aS'-Ilib/ros_lib/tf'
p77
aS'-Ilib/ros_lib/geometry_msgs'
p78
aS'-Ilib/ros_lib/std_msgs'
p79
aS'-Ilib/ros_lib/nav_msgs'
p80
aS'-Ilib/ros_lib/sensor_msgs'
p81
aS'-Ilib/ros_lib/rosserial_arduino'
p82
aS'-Ilib/ros_lib/rosserial_msgs'
p83
aS'-Ilib/ros_lib/tests'
p84
aS'-Ilib/ros_lib/ros'
p85
aS'-Ilib/ros_lib/diagnostic_msgs'
p86
aS'-Ilib/ros_lib/tests/array_test'
p87
aS'-Ilib/ros_lib/tests/float64_test'
p88
aS'-Ilib/ros_lib/tests/time_test'
p89
aS'-I/usr/share/arduino/libraries/SoftwareSerial'
p90
aS'-I/usr/share/arduino/libraries/Wire'
p91
aS'-I/usr/share/arduino/libraries/Wire/utility'
p92
aS'-I/usr/share/arduino/hardware/arduino/cores/arduino'
p93
atp94
Rp95
tp96
a(S'elfflags'
p97
g32
(g33
g34
(lp98
g66
aS'-Wl,--gc-sections'
p99
ag62
atp100
Rp101
tp102
a(S'arduino_lib_version'
p103
g32
(cino.environment
Version
p104
c__builtin__
tuple
p105
(I1
I0
tp106
tp107
Rp108
tp109
a(S'objcopy'
p110
S'/usr/bin/avr-objcopy'
p111
tp112
a(S'ar'
p113
S'/usr/bin/avr-ar'
p114
tp115
a(S'board_models'
p116
cino.environment
BoardModels
p117
((lp118
(lp119
S'uno'
p120
a(dp121
S'bootloader'
p122
(dp123
S'extended_fuses'
p124
S'0x05'
p125
sS'high_fuses'
p126
S'0xde'
p127
sS'low_fuses'
p128
S'0xff'
p129
sS'lock_bits'
p130
S'0x0F'
p131
sS'file'
p132
S'optiboot_atmega328.hex'
p133
sS'path'
p134
S'optiboot'
p135
sS'unlock_bits'
p136
S'0x3F'
p137
ssS'upload'
p138
(dp139
S'speed'
p140
S'115200'
p141
sS'maximum_size'
p142
S'32256'
p143
sS'protocol'
p144
S'arduino'
p145
ssS'name'
p146
S'Arduino Uno'
p147
sS'build'
p148
(dp149
S'core'
p150
S'arduino'
p151
sS'mcu'
p152
S'atmega328p'
p153
sS'f_cpu'
p154
S'16000000L'
p155
sS'variant'
p156
S'standard'
p157
ssaa(lp158
S'atmega328'
p159
a(dp160
S'bootloader'
p161
(dp162
S'extended_fuses'
p163
S'0x05'
p164
sS'high_fuses'
p165
S'0xDA'
p166
sS'low_fuses'
p167
S'0xFF'
p168
sS'lock_bits'
p169
S'0x0F'
p170
sS'file'
p171
S'ATmegaBOOT_168_atmega328.hex'
p172
sS'path'
p173
S'atmega'
p174
sS'unlock_bits'
p175
S'0x3F'
p176
ssS'upload'
p177
(dp178
S'speed'
p179
S'57600'
p180
sS'maximum_size'
p181
S'30720'
p182
sS'protocol'
p183
S'arduino'
p184
ssS'name'
p185
S'Arduino Duemilanove w/ ATmega328'
p186
sS'build'
p187
(dp188
S'core'
p189
S'arduino'
p190
sS'mcu'
p191
S'atmega328p'
p192
sS'f_cpu'
p193
S'16000000L'
p194
sS'variant'
p195
S'standard'
p196
ssaa(lp197
S'diecimila'
p198
a(dp199
S'bootloader'
p200
(dp201
S'extended_fuses'
p202
S'0x00'
p203
sS'high_fuses'
p204
S'0xdd'
p205
sS'low_fuses'
p206
S'0xff'
p207
sS'lock_bits'
p208
S'0x0F'
p209
sS'file'
p210
S'ATmegaBOOT_168_diecimila.hex'
p211
sS'path'
p212
S'atmega'
p213
sS'unlock_bits'
p214
S'0x3F'
p215
ssS'upload'
p216
(dp217
S'speed'
p218
S'19200'
p219
sS'maximum_size'
p220
S'14336'
p221
sS'protocol'
p222
S'arduino'
p223
ssS'name'
p224
S'Arduino Diecimila or Duemilanove w/ ATmega168'
p225
sS'build'
p226
(dp227
S'core'
p228
S'arduino'
p229
sS'mcu'
p230
S'atmega168'
p231
sS'f_cpu'
p232
S'16000000L'
p233
sS'variant'
p234
S'standard'
p235
ssaa(lp236
S'nano328'
p237
a(dp238
S'bootloader'
p239
(dp240
S'extended_fuses'
p241
S'0x05'
p242
sS'high_fuses'
p243
S'0xDA'
p244
sS'low_fuses'
p245
S'0xFF'
p246
sS'lock_bits'
p247
S'0x0F'
p248
sS'file'
p249
S'ATmegaBOOT_168_atmega328.hex'
p250
sS'path'
p251
S'atmega'
p252
sS'unlock_bits'
p253
S'0x3F'
p254
ssS'upload'
p255
(dp256
S'speed'
p257
S'57600'
p258
sS'maximum_size'
p259
S'30720'
p260
sS'protocol'
p261
S'arduino'
p262
ssS'name'
p263
S'Arduino Nano w/ ATmega328'
p264
sS'build'
p265
(dp266
S'core'
p267
S'arduino'
p268
sS'mcu'
p269
S'atmega328p'
p270
sS'f_cpu'
p271
S'16000000L'
p272
sS'variant'
p273
S'eightanaloginputs'
p274
ssaa(lp275
S'nano'
p276
a(dp277
S'bootloader'
p278
(dp279
S'extended_fuses'
p280
S'0x00'
p281
sS'high_fuses'
p282
S'0xdd'
p283
sS'low_fuses'
p284
S'0xff'
p285
sS'lock_bits'
p286
S'0x0F'
p287
sS'file'
p288
S'ATmegaBOOT_168_diecimila.hex'
p289
sS'path'
p290
S'atmega'
p291
sS'unlock_bits'
p292
S'0x3F'
p293
ssS'upload'
p294
(dp295
S'speed'
p296
S'19200'
p297
sS'maximum_size'
p298
S'14336'
p299
sS'protocol'
p300
S'arduino'
p301
ssS'name'
p302
S'Arduino Nano w/ ATmega168'
p303
sS'build'
p304
(dp305
S'core'
p306
S'arduino'
p307
sS'mcu'
p308
S'atmega168'
p309
sS'f_cpu'
p310
S'16000000L'
p311
sS'variant'
p312
S'eightanaloginputs'
p313
ssaa(lp314
S'mega2560'
p315
a(dp316
S'bootloader'
p317
(dp318
S'extended_fuses'
p319
S'0xFD'
p320
sS'high_fuses'
p321
S'0xD8'
p322
sS'low_fuses'
p323
S'0xFF'
p324
sS'lock_bits'
p325
S'0x0F'
p326
sS'file'
p327
S'stk500boot_v2_mega2560.hex'
p328
sS'path'
p329
S'stk500v2'
p330
sS'unlock_bits'
p331
S'0x3F'
p332
ssS'upload'
p333
(dp334
S'speed'
p335
S'115200'
p336
sS'maximum_size'
p337
S'258048'
p338
sS'protocol'
p339
S'stk500v2'
p340
ssS'name'
p341
S'Arduino Mega 2560 or Mega ADK'
p342
sS'build'
p343
(dp344
S'core'
p345
S'arduino'
p346
sS'mcu'
p347
S'atmega2560'
p348
sS'f_cpu'
p349
S'16000000L'
p350
sS'variant'
p351
S'mega'
p352
ssaa(lp353
S'mega'
p354
a(dp355
S'bootloader'
p356
(dp357
S'extended_fuses'
p358
S'0xF5'
p359
sS'high_fuses'
p360
S'0xDA'
p361
sS'low_fuses'
p362
S'0xFF'
p363
sS'lock_bits'
p364
S'0x0F'
p365
sS'file'
p366
S'ATmegaBOOT_168_atmega1280.hex'
p367
sS'path'
p368
S'atmega'
p369
sS'unlock_bits'
p370
S'0x3F'
p371
ssS'upload'
p372
(dp373
S'speed'
p374
S'57600'
p375
sS'maximum_size'
p376
S'126976'
p377
sS'protocol'
p378
S'arduino'
p379
ssS'name'
p380
S'Arduino Mega (ATmega1280)'
p381
sS'build'
p382
(dp383
S'core'
p384
S'arduino'
p385
sS'mcu'
p386
S'atmega1280'
p387
sS'f_cpu'
p388
S'16000000L'
p389
sS'variant'
p390
S'mega'
p391
ssaa(lp392
S'mini328'
p393
a(dp394
S'bootloader'
p395
(dp396
S'extended_fuses'
p397
S'0x05'
p398
sS'high_fuses'
p399
S'0xd8'
p400
sS'low_fuses'
p401
S'0xff'
p402
sS'lock_bits'
p403
S'0x0F'
p404
sS'file'
p405
S'optiboot_atmega328-Mini.hex'
p406
sS'path'
p407
S'optiboot'
p408
sS'unlock_bits'
p409
S'0x3F'
p410
ssS'upload'
p411
(dp412
S'speed'
p413
S'115200'
p414
sS'maximum_size'
p415
S'28672'
p416
sS'protocol'
p417
S'stk500'
p418
ssS'name'
p419
S'Arduino Mini w/ ATmega328'
p420
sS'build'
p421
(dp422
S'core'
p423
S'arduino'
p424
sS'mcu'
p425
S'atmega328p'
p426
sS'f_cpu'
p427
S'16000000L'
p428
sS'variant'
p429
S'eightanaloginputs'
p430
ssaa(lp431
S'mini'
p432
a(dp433
S'bootloader'
p434
(dp435
S'extended_fuses'
p436
S'0x00'
p437
sS'high_fuses'
p438
S'0xdd'
p439
sS'low_fuses'
p440
S'0xff'
p441
sS'lock_bits'
p442
S'0x0F'
p443
sS'file'
p444
S'ATmegaBOOT_168_ng.hex'
p445
sS'path'
p446
S'atmega'
p447
sS'unlock_bits'
p448
S'0x3F'
p449
ssS'upload'
p450
(dp451
S'speed'
p452
S'19200'
p453
sS'maximum_size'
p454
S'14336'
p455
sS'protocol'
p456
S'arduino'
p457
ssS'name'
p458
S'Arduino Mini w/ ATmega168'
p459
sS'build'
p460
(dp461
S'core'
p462
S'arduino'
p463
sS'mcu'
p464
S'atmega168'
p465
sS'f_cpu'
p466
S'16000000L'
p467
sS'variant'
p468
S'eightanaloginputs'
p469
ssaa(lp470
S'ethernet'
p471
a(dp472
S'bootloader'
p473
(dp474
S'extended_fuses'
p475
S'0x05'
p476
sS'high_fuses'
p477
S'0xde'
p478
sS'low_fuses'
p479
S'0xff'
p480
sS'lock_bits'
p481
S'0x0F'
p482
sS'file'
p483
S'optiboot_atmega328.hex'
p484
sS'path'
p485
S'optiboot'
p486
sS'unlock_bits'
p487
S'0x3F'
p488
ssS'upload'
p489
(dp490
S'speed'
p491
S'115200'
p492
sS'maximum_size'
p493
S'32256'
p494
sS'protocol'
p495
S'arduino'
p496
ssS'name'
p497
S'Arduino Ethernet'
p498
sS'build'
p499
(dp500
S'f_cpu'
p501
S'16000000L'
p502
sS'mcu'
p503
S'atmega328p'
p504
sS'variant'
p505
S'standard'
p506
sS'core'
p507
S'arduino'
p508
ssaa(lp509
S'fio'
p510
a(dp511
S'bootloader'
p512
(dp513
S'extended_fuses'
p514
S'0x05'
p515
sS'high_fuses'
p516
S'0xDA'
p517
sS'low_fuses'
p518
S'0xFF'
p519
sS'lock_bits'
p520
S'0x0F'
p521
sS'file'
p522
S'ATmegaBOOT_168_atmega328_pro_8MHz.hex'
p523
sS'path'
p524
S'arduino:atmega'
p525
sS'unlock_bits'
p526
S'0x3F'
p527
ssS'upload'
p528
(dp529
S'speed'
p530
S'57600'
p531
sS'maximum_size'
p532
S'30720'
p533
sS'protocol'
p534
S'arduino'
p535
ssS'name'
p536
S'Arduino Fio'
p537
sS'build'
p538
(dp539
S'core'
p540
S'arduino'
p541
sS'mcu'
p542
S'atmega328p'
p543
sS'f_cpu'
p544
S'8000000L'
p545
sS'variant'
p546
S'eightanaloginputs'
p547
ssaa(lp548
S'bt328'
p549
a(dp550
S'bootloader'
p551
(dp552
S'extended_fuses'
p553
S'0x05'
p554
sS'high_fuses'
p555
S'0xd8'
p556
sS'low_fuses'
p557
S'0xff'
p558
sS'lock_bits'
p559
S'0x0F'
p560
sS'file'
p561
S'ATmegaBOOT_168_atmega328_bt.hex'
p562
sS'path'
p563
S'bt'
p564
sS'unlock_bits'
p565
S'0x3F'
p566
ssS'upload'
p567
(dp568
S'speed'
p569
S'19200'
p570
sS'maximum_size'
p571
S'28672'
p572
sS'protocol'
p573
S'arduino'
p574
sS'disable_flushing'
p575
S'true'
p576
ssS'name'
p577
S'Arduino BT w/ ATmega328'
p578
sS'build'
p579
(dp580
S'core'
p581
S'arduino'
p582
sS'mcu'
p583
S'atmega328p'
p584
sS'f_cpu'
p585
S'16000000L'
p586
sS'variant'
p587
S'eightanaloginputs'
p588
ssaa(lp589
S'bt'
p590
a(dp591
S'bootloader'
p592
(dp593
S'extended_fuses'
p594
S'0x00'
p595
sS'high_fuses'
p596
S'0xdd'
p597
sS'low_fuses'
p598
S'0xff'
p599
sS'lock_bits'
p600
S'0x0F'
p601
sS'file'
p602
S'ATmegaBOOT_168.hex'
p603
sS'path'
p604
S'bt'
p605
sS'unlock_bits'
p606
S'0x3F'
p607
ssS'upload'
p608
(dp609
S'speed'
p610
S'19200'
p611
sS'maximum_size'
p612
S'14336'
p613
sS'protocol'
p614
S'arduino'
p615
sS'disable_flushing'
p616
S'true'
p617
ssS'name'
p618
S'Arduino BT w/ ATmega168'
p619
sS'build'
p620
(dp621
S'core'
p622
S'arduino'
p623
sS'mcu'
p624
S'atmega168'
p625
sS'f_cpu'
p626
S'16000000L'
p627
sS'variant'
p628
S'eightanaloginputs'
p629
ssaa(lp630
S'lilypad328'
p631
a(dp632
S'bootloader'
p633
(dp634
S'extended_fuses'
p635
S'0x05'
p636
sS'high_fuses'
p637
S'0xDA'
p638
sS'low_fuses'
p639
S'0xFF'
p640
sS'lock_bits'
p641
S'0x0F'
p642
sS'file'
p643
S'ATmegaBOOT_168_atmega328_pro_8MHz.hex'
p644
sS'path'
p645
S'atmega'
p646
sS'unlock_bits'
p647
S'0x3F'
p648
ssS'upload'
p649
(dp650
S'speed'
p651
S'57600'
p652
sS'maximum_size'
p653
S'30720'
p654
sS'protocol'
p655
S'arduino'
p656
ssS'name'
p657
S'LilyPad Arduino w/ ATmega328'
p658
sS'build'
p659
(dp660
S'core'
p661
S'arduino'
p662
sS'mcu'
p663
S'atmega328p'
p664
sS'f_cpu'
p665
S'8000000L'
p666
sS'variant'
p667
S'standard'
p668
ssaa(lp669
S'lilypad'
p670
a(dp671
S'bootloader'
p672
(dp673
S'extended_fuses'
p674
S'0x00'
p675
sS'high_fuses'
p676
S'0xdd'
p677
sS'low_fuses'
p678
S'0xe2'
p679
sS'lock_bits'
p680
S'0x0F'
p681
sS'file'
p682
S'LilyPadBOOT_168.hex'
p683
sS'path'
p684
S'lilypad'
p685
sS'unlock_bits'
p686
S'0x3F'
p687
ssS'upload'
p688
(dp689
S'speed'
p690
S'19200'
p691
sS'maximum_size'
p692
S'14336'
p693
sS'protocol'
p694
S'arduino'
p695
ssS'name'
p696
S'LilyPad Arduino w/ ATmega168'
p697
sS'build'
p698
(dp699
S'core'
p700
S'arduino'
p701
sS'mcu'
p702
S'atmega168'
p703
sS'f_cpu'
p704
S'8000000L'
p705
sS'variant'
p706
S'standard'
p707
ssaa(lp708
S'pro5v328'
p709
a(dp710
S'bootloader'
p711
(dp712
S'extended_fuses'
p713
S'0x05'
p714
sS'high_fuses'
p715
S'0xDA'
p716
sS'low_fuses'
p717
S'0xFF'
p718
sS'lock_bits'
p719
S'0x0F'
p720
sS'file'
p721
S'ATmegaBOOT_168_atmega328.hex'
p722
sS'path'
p723
S'atmega'
p724
sS'unlock_bits'
p725
S'0x3F'
p726
ssS'upload'
p727
(dp728
S'speed'
p729
S'57600'
p730
sS'maximum_size'
p731
S'30720'
p732
sS'protocol'
p733
S'arduino'
p734
ssS'name'
p735
S'Arduino Pro or Pro Mini (5V, 16 MHz) w/ ATmega328'
p736
sS'build'
p737
(dp738
S'core'
p739
S'arduino'
p740
sS'mcu'
p741
S'atmega328p'
p742
sS'f_cpu'
p743
S'16000000L'
p744
sS'variant'
p745
S'standard'
p746
ssaa(lp747
S'pro5v'
p748
a(dp749
S'bootloader'
p750
(dp751
S'extended_fuses'
p752
S'0x00'
p753
sS'high_fuses'
p754
S'0xdd'
p755
sS'low_fuses'
p756
S'0xff'
p757
sS'lock_bits'
p758
S'0x0F'
p759
sS'file'
p760
S'ATmegaBOOT_168_diecimila.hex'
p761
sS'path'
p762
S'atmega'
p763
sS'unlock_bits'
p764
S'0x3F'
p765
ssS'upload'
p766
(dp767
S'speed'
p768
S'19200'
p769
sS'maximum_size'
p770
S'14336'
p771
sS'protocol'
p772
S'arduino'
p773
ssS'name'
p774
S'Arduino Pro or Pro Mini (5V, 16 MHz) w/ ATmega168'
p775
sS'build'
p776
(dp777
S'core'
p778
S'arduino'
p779
sS'mcu'
p780
S'atmega168'
p781
sS'f_cpu'
p782
S'16000000L'
p783
sS'variant'
p784
S'standard'
p785
ssaa(lp786
S'pro328'
p787
a(dp788
S'bootloader'
p789
(dp790
S'extended_fuses'
p791
S'0x05'
p792
sS'high_fuses'
p793
S'0xDA'
p794
sS'low_fuses'
p795
S'0xFF'
p796
sS'lock_bits'
p797
S'0x0F'
p798
sS'file'
p799
S'ATmegaBOOT_168_atmega328_pro_8MHz.hex'
p800
sS'path'
p801
S'atmega'
p802
sS'unlock_bits'
p803
S'0x3F'
p804
ssS'upload'
p805
(dp806
S'speed'
p807
S'57600'
p808
sS'maximum_size'
p809
S'30720'
p810
sS'protocol'
p811
S'arduino'
p812
ssS'name'
p813
S'Arduino Pro or Pro Mini (3.3V, 8 MHz) w/ ATmega328'
p814
sS'build'
p815
(dp816
S'core'
p817
S'arduino'
p818
sS'mcu'
p819
S'atmega328p'
p820
sS'f_cpu'
p821
S'8000000L'
p822
sS'variant'
p823
S'standard'
p824
ssaa(lp825
S'pro'
p826
a(dp827
S'bootloader'
p828
(dp829
S'extended_fuses'
p830
S'0x00'
p831
sS'high_fuses'
p832
S'0xdd'
p833
sS'low_fuses'
p834
S'0xc6'
p835
sS'lock_bits'
p836
S'0x0F'
p837
sS'file'
p838
S'ATmegaBOOT_168_pro_8MHz.hex'
p839
sS'path'
p840
S'atmega'
p841
sS'unlock_bits'
p842
S'0x3F'
p843
ssS'upload'
p844
(dp845
S'speed'
p846
S'19200'
p847
sS'maximum_size'
p848
S'14336'
p849
sS'protocol'
p850
S'arduino'
p851
ssS'name'
p852
S'Arduino Pro or Pro Mini (3.3V, 8 MHz) w/ ATmega168'
p853
sS'build'
p854
(dp855
S'core'
p856
S'arduino'
p857
sS'mcu'
p858
S'atmega168'
p859
sS'f_cpu'
p860
S'8000000L'
p861
sS'variant'
p862
S'standard'
p863
ssaa(lp864
S'atmega168'
p865
a(dp866
S'bootloader'
p867
(dp868
S'extended_fuses'
p869
S'0x00'
p870
sS'high_fuses'
p871
S'0xdd'
p872
sS'low_fuses'
p873
S'0xff'
p874
sS'lock_bits'
p875
S'0x0F'
p876
sS'file'
p877
S'ATmegaBOOT_168_ng.hex'
p878
sS'path'
p879
S'atmega'
p880
sS'unlock_bits'
p881
S'0x3F'
p882
ssS'upload'
p883
(dp884
S'speed'
p885
S'19200'
p886
sS'maximum_size'
p887
S'14336'
p888
sS'protocol'
p889
S'arduino'
p890
ssS'name'
p891
S'Arduino NG or older w/ ATmega168'
p892
sS'build'
p893
(dp894
S'core'
p895
S'arduino'
p896
sS'mcu'
p897
S'atmega168'
p898
sS'f_cpu'
p899
S'16000000L'
p900
sS'variant'
p901
S'standard'
p902
ssaa(lp903
S'atmega8'
p904
a(dp905
S'bootloader'
p906
(dp907
S'high_fuses'
p908
S'0xca'
p909
sS'low_fuses'
p910
S'0xdf'
p911
sS'lock_bits'
p912
S'0x0F'
p913
sS'file'
p914
S'ATmegaBOOT.hex'
p915
sS'path'
p916
S'atmega8'
p917
sS'unlock_bits'
p918
S'0x3F'
p919
ssS'upload'
p920
(dp921
S'speed'
p922
S'19200'
p923
sS'maximum_size'
p924
S'7168'
p925
sS'protocol'
p926
S'arduino'
p927
ssS'name'
p928
S'Arduino NG or older w/ ATmega8'
p929
sS'build'
p930
(dp931
S'core'
p932
S'arduino'
p933
sS'mcu'
p934
S'atmega8'
p935
sS'f_cpu'
p936
S'16000000L'
p937
sS'variant'
p938
S'standard'
p939
ssaatp940
Rp941
(dp942
S'default'
p943
S'uno'
p944
sbtp945
a(S'deps'
p946
g32
(g33
g34
(lp947
S'.build/uno/src/dependencies.d'
p948
aS'.build/uno/arduino/dependencies.d'
p949
aS'.build/uno/Wire/dependencies.d'
p950
aS'.build/uno/SoftwareSerial/dependencies.d'
p951
aS'.build/uno/Adafruit-GPS-Library-master/dependencies.d'
p952
aS'.build/uno/Servo/dependencies.d'
p953
aS'.build/uno/LSM303-master/dependencies.d'
p954
aS'.build/uno/ros_lib/dependencies.d'
p955
atp956
Rp957
tp958
a(S'build_dir'
p959
S'.build/uno'
p960
tp961
a.