(lp0
(S'elfflags'
p1
ccopy_reg
_reconstructor
p2
(cino.utils
SpaceList
p3
c__builtin__
list
p4
(lp5
S'-Os'
p6
aS'-Wl,--gc-sections'
p7
aS'-mmcu=atmega328p'
p8
atp9
Rp10
tp11
a(S'version.txt'
p12
S'/usr/share/arduino/lib/version.txt'
p13
tp14
a(S'used_libs'
p15
(lp16
S'lib/TinyGPS'
p17
aS'lib/LSM303'
p18
aS'/usr/share/arduino/libraries/SoftwareSerial'
p19
aS'/usr/share/arduino/libraries/Servo'
p20
aS'lib/ros_lib'
p21
aS'/usr/share/arduino/libraries/Wire'
p22
aS'/usr/share/arduino/hardware/arduino/cores/arduino'
p23
atp24
a(S'cc'
p25
S'/usr/bin/avr-gcc'
p26
tp27
a(S'build_dir'
p28
S'.build/uno'
p29
tp30
a(S'arduino_core_dir'
p31
g23
tp32
a(S'boards.txt'
p33
S'/usr/share/arduino/hardware/arduino/boards.txt'
p34
tp35
a(S'cxxflags'
p36
g2
(g3
g4
(lp37
S'-fno-exceptions'
p38
atp39
Rp40
tp41
a(S'arduino_variants_dir'
p42
S'/usr/share/arduino/hardware/arduino/variants'
p43
tp44
a(S'deps'
p45
g2
(g3
g4
(lp46
S'.build/uno/src/dependencies.d'
p47
aS'.build/uno/arduino/dependencies.d'
p48
aS'.build/uno/TinyGPS/dependencies.d'
p49
aS'.build/uno/LSM303/dependencies.d'
p50
aS'.build/uno/Wire/dependencies.d'
p51
aS'.build/uno/SoftwareSerial/dependencies.d'
p52
aS'.build/uno/Servo/dependencies.d'
p53
aS'.build/uno/ros_lib/dependencies.d'
p54
atp55
Rp56
tp57
a(S'ar'
p58
S'/usr/bin/avr-ar'
p59
tp60
a(S'names'
p61
(dp62
S'cpp'
p63
S'%s.cpp'
p64
sS'obj'
p65
S'%s.o'
p66
sg45
S'%s.d'
p67
sS'lib'
p68
S'lib%s.a'
p69
stp70
a(S'cflags'
p71
g2
(g3
g4
(lp72
g8
aS'-ffunction-sections'
p73
aS'-fdata-sections'
p74
aS'-g'
p75
ag6
aS'-w'
p76
aS'-DF_CPU=16000000L'
p77
aS'-DARDUINO=100'
p78
aS'-I/usr/share/arduino/hardware/arduino/cores/arduino'
p79
aS'-I/usr/share/arduino/hardware/arduino/variants/standard'
p80
aS'-Ilib/TinyGPS'
p81
aS'-Ilib/TinyGPS/Examples'
p82
aS'-Ilib/TinyGPS/Examples/simple_test'
p83
aS'-Ilib/TinyGPS/Examples/test_with_gps_device'
p84
aS'-Ilib/TinyGPS/Examples/static_test'
p85
aS'-Ilib/LSM303'
p86
aS'-I/usr/share/arduino/libraries/SoftwareSerial'
p87
aS'-I/usr/share/arduino/libraries/Servo'
p88
aS'-Ilib/ros_lib'
p89
aS'-Ilib/ros_lib/tf'
p90
aS'-Ilib/ros_lib/geometry_msgs'
p91
aS'-Ilib/ros_lib/std_msgs'
p92
aS'-Ilib/ros_lib/nav_msgs'
p93
aS'-Ilib/ros_lib/sensor_msgs'
p94
aS'-Ilib/ros_lib/rosserial_arduino'
p95
aS'-Ilib/ros_lib/rosserial_msgs'
p96
aS'-Ilib/ros_lib/tests'
p97
aS'-Ilib/ros_lib/ros'
p98
aS'-Ilib/ros_lib/diagnostic_msgs'
p99
aS'-Ilib/ros_lib/tests/array_test'
p100
aS'-Ilib/ros_lib/tests/float64_test'
p101
aS'-Ilib/ros_lib/tests/time_test'
p102
aS'-I/usr/share/arduino/libraries/Wire'
p103
aS'-I/usr/share/arduino/libraries/Wire/utility'
p104
aS'-I/usr/share/arduino/hardware/arduino/cores/arduino'
p105
atp106
Rp107
tp108
a(S'arduino_libraries_dir'
p109
S'/usr/share/arduino/libraries'
p110
tp111
a(S'arduino_lib_version'
p112
g2
(cino.environment
Version
p113
c__builtin__
tuple
p114
(I1
I0
tp115
tp116
Rp117
tp118
a(S'objcopy'
p119
S'/usr/bin/avr-objcopy'
p120
tp121
a(S'board_models'
p122
cino.environment
BoardModels
p123
((lp124
(lp125
S'uno'
p126
a(dp127
S'build'
p128
(dp129
S'core'
p130
S'arduino'
p131
sS'mcu'
p132
S'atmega328p'
p133
sS'f_cpu'
p134
S'16000000L'
p135
sS'variant'
p136
S'standard'
p137
ssS'bootloader'
p138
(dp139
S'extended_fuses'
p140
S'0x05'
p141
sS'high_fuses'
p142
S'0xde'
p143
sS'low_fuses'
p144
S'0xff'
p145
sS'lock_bits'
p146
S'0x0F'
p147
sS'file'
p148
S'optiboot_atmega328.hex'
p149
sS'path'
p150
S'optiboot'
p151
sS'unlock_bits'
p152
S'0x3F'
p153
ssS'name'
p154
S'Arduino Uno'
p155
sS'upload'
p156
(dp157
S'speed'
p158
S'115200'
p159
sS'maximum_size'
p160
S'32256'
p161
sS'protocol'
p162
S'arduino'
p163
ssaa(lp164
S'atmega328'
p165
a(dp166
S'build'
p167
(dp168
S'core'
p169
S'arduino'
p170
sS'mcu'
p171
S'atmega328p'
p172
sS'f_cpu'
p173
S'16000000L'
p174
sS'variant'
p175
S'standard'
p176
ssS'bootloader'
p177
(dp178
S'extended_fuses'
p179
S'0x05'
p180
sS'high_fuses'
p181
S'0xDA'
p182
sS'low_fuses'
p183
S'0xFF'
p184
sS'lock_bits'
p185
S'0x0F'
p186
sS'file'
p187
S'ATmegaBOOT_168_atmega328.hex'
p188
sS'path'
p189
S'atmega'
p190
sS'unlock_bits'
p191
S'0x3F'
p192
ssS'name'
p193
S'Arduino Duemilanove w/ ATmega328'
p194
sS'upload'
p195
(dp196
S'speed'
p197
S'57600'
p198
sS'maximum_size'
p199
S'30720'
p200
sS'protocol'
p201
S'arduino'
p202
ssaa(lp203
S'diecimila'
p204
a(dp205
S'build'
p206
(dp207
S'core'
p208
S'arduino'
p209
sS'mcu'
p210
S'atmega168'
p211
sS'f_cpu'
p212
S'16000000L'
p213
sS'variant'
p214
S'standard'
p215
ssS'bootloader'
p216
(dp217
S'extended_fuses'
p218
S'0x00'
p219
sS'high_fuses'
p220
S'0xdd'
p221
sS'low_fuses'
p222
S'0xff'
p223
sS'lock_bits'
p224
S'0x0F'
p225
sS'file'
p226
S'ATmegaBOOT_168_diecimila.hex'
p227
sS'path'
p228
S'atmega'
p229
sS'unlock_bits'
p230
S'0x3F'
p231
ssS'name'
p232
S'Arduino Diecimila or Duemilanove w/ ATmega168'
p233
sS'upload'
p234
(dp235
S'speed'
p236
S'19200'
p237
sS'maximum_size'
p238
S'14336'
p239
sS'protocol'
p240
S'arduino'
p241
ssaa(lp242
S'nano328'
p243
a(dp244
S'build'
p245
(dp246
S'core'
p247
S'arduino'
p248
sS'mcu'
p249
S'atmega328p'
p250
sS'f_cpu'
p251
S'16000000L'
p252
sS'variant'
p253
S'eightanaloginputs'
p254
ssS'bootloader'
p255
(dp256
S'extended_fuses'
p257
S'0x05'
p258
sS'high_fuses'
p259
S'0xDA'
p260
sS'low_fuses'
p261
S'0xFF'
p262
sS'lock_bits'
p263
S'0x0F'
p264
sS'file'
p265
S'ATmegaBOOT_168_atmega328.hex'
p266
sS'path'
p267
S'atmega'
p268
sS'unlock_bits'
p269
S'0x3F'
p270
ssS'name'
p271
S'Arduino Nano w/ ATmega328'
p272
sS'upload'
p273
(dp274
S'speed'
p275
S'57600'
p276
sS'maximum_size'
p277
S'30720'
p278
sS'protocol'
p279
S'arduino'
p280
ssaa(lp281
S'nano'
p282
a(dp283
S'build'
p284
(dp285
S'core'
p286
S'arduino'
p287
sS'mcu'
p288
S'atmega168'
p289
sS'f_cpu'
p290
S'16000000L'
p291
sS'variant'
p292
S'eightanaloginputs'
p293
ssS'bootloader'
p294
(dp295
S'extended_fuses'
p296
S'0x00'
p297
sS'high_fuses'
p298
S'0xdd'
p299
sS'low_fuses'
p300
S'0xff'
p301
sS'lock_bits'
p302
S'0x0F'
p303
sS'file'
p304
S'ATmegaBOOT_168_diecimila.hex'
p305
sS'path'
p306
S'atmega'
p307
sS'unlock_bits'
p308
S'0x3F'
p309
ssS'name'
p310
S'Arduino Nano w/ ATmega168'
p311
sS'upload'
p312
(dp313
S'speed'
p314
S'19200'
p315
sS'maximum_size'
p316
S'14336'
p317
sS'protocol'
p318
S'arduino'
p319
ssaa(lp320
S'mega2560'
p321
a(dp322
S'build'
p323
(dp324
S'core'
p325
S'arduino'
p326
sS'mcu'
p327
S'atmega2560'
p328
sS'f_cpu'
p329
S'16000000L'
p330
sS'variant'
p331
S'mega'
p332
ssS'bootloader'
p333
(dp334
S'extended_fuses'
p335
S'0xFD'
p336
sS'high_fuses'
p337
S'0xD8'
p338
sS'low_fuses'
p339
S'0xFF'
p340
sS'lock_bits'
p341
S'0x0F'
p342
sS'file'
p343
S'stk500boot_v2_mega2560.hex'
p344
sS'path'
p345
S'stk500v2'
p346
sS'unlock_bits'
p347
S'0x3F'
p348
ssS'name'
p349
S'Arduino Mega 2560 or Mega ADK'
p350
sS'upload'
p351
(dp352
S'speed'
p353
S'115200'
p354
sS'maximum_size'
p355
S'258048'
p356
sS'protocol'
p357
S'stk500v2'
p358
ssaa(lp359
S'mega'
p360
a(dp361
S'build'
p362
(dp363
S'core'
p364
S'arduino'
p365
sS'mcu'
p366
S'atmega1280'
p367
sS'f_cpu'
p368
S'16000000L'
p369
sS'variant'
p370
S'mega'
p371
ssS'bootloader'
p372
(dp373
S'extended_fuses'
p374
S'0xF5'
p375
sS'high_fuses'
p376
S'0xDA'
p377
sS'low_fuses'
p378
S'0xFF'
p379
sS'lock_bits'
p380
S'0x0F'
p381
sS'file'
p382
S'ATmegaBOOT_168_atmega1280.hex'
p383
sS'path'
p384
S'atmega'
p385
sS'unlock_bits'
p386
S'0x3F'
p387
ssS'name'
p388
S'Arduino Mega (ATmega1280)'
p389
sS'upload'
p390
(dp391
S'speed'
p392
S'57600'
p393
sS'maximum_size'
p394
S'126976'
p395
sS'protocol'
p396
S'arduino'
p397
ssaa(lp398
S'mini328'
p399
a(dp400
S'build'
p401
(dp402
S'core'
p403
S'arduino'
p404
sS'mcu'
p405
S'atmega328p'
p406
sS'f_cpu'
p407
S'16000000L'
p408
sS'variant'
p409
S'eightanaloginputs'
p410
ssS'bootloader'
p411
(dp412
S'extended_fuses'
p413
S'0x05'
p414
sS'high_fuses'
p415
S'0xd8'
p416
sS'low_fuses'
p417
S'0xff'
p418
sS'lock_bits'
p419
S'0x0F'
p420
sS'file'
p421
S'optiboot_atmega328-Mini.hex'
p422
sS'path'
p423
S'optiboot'
p424
sS'unlock_bits'
p425
S'0x3F'
p426
ssS'name'
p427
S'Arduino Mini w/ ATmega328'
p428
sS'upload'
p429
(dp430
S'speed'
p431
S'115200'
p432
sS'maximum_size'
p433
S'28672'
p434
sS'protocol'
p435
S'stk500'
p436
ssaa(lp437
S'mini'
p438
a(dp439
S'build'
p440
(dp441
S'core'
p442
S'arduino'
p443
sS'mcu'
p444
S'atmega168'
p445
sS'f_cpu'
p446
S'16000000L'
p447
sS'variant'
p448
S'eightanaloginputs'
p449
ssS'bootloader'
p450
(dp451
S'extended_fuses'
p452
S'0x00'
p453
sS'high_fuses'
p454
S'0xdd'
p455
sS'low_fuses'
p456
S'0xff'
p457
sS'lock_bits'
p458
S'0x0F'
p459
sS'file'
p460
S'ATmegaBOOT_168_ng.hex'
p461
sS'path'
p462
S'atmega'
p463
sS'unlock_bits'
p464
S'0x3F'
p465
ssS'name'
p466
S'Arduino Mini w/ ATmega168'
p467
sS'upload'
p468
(dp469
S'speed'
p470
S'19200'
p471
sS'maximum_size'
p472
S'14336'
p473
sS'protocol'
p474
S'arduino'
p475
ssaa(lp476
S'ethernet'
p477
a(dp478
S'build'
p479
(dp480
S'f_cpu'
p481
S'16000000L'
p482
sS'mcu'
p483
S'atmega328p'
p484
sS'variant'
p485
S'standard'
p486
sS'core'
p487
S'arduino'
p488
ssS'bootloader'
p489
(dp490
S'extended_fuses'
p491
S'0x05'
p492
sS'high_fuses'
p493
S'0xde'
p494
sS'low_fuses'
p495
S'0xff'
p496
sS'lock_bits'
p497
S'0x0F'
p498
sS'file'
p499
S'optiboot_atmega328.hex'
p500
sS'path'
p501
S'optiboot'
p502
sS'unlock_bits'
p503
S'0x3F'
p504
ssS'name'
p505
S'Arduino Ethernet'
p506
sS'upload'
p507
(dp508
S'speed'
p509
S'115200'
p510
sS'maximum_size'
p511
S'32256'
p512
sS'protocol'
p513
S'arduino'
p514
ssaa(lp515
S'fio'
p516
a(dp517
S'build'
p518
(dp519
S'core'
p520
S'arduino'
p521
sS'mcu'
p522
S'atmega328p'
p523
sS'f_cpu'
p524
S'8000000L'
p525
sS'variant'
p526
S'eightanaloginputs'
p527
ssS'bootloader'
p528
(dp529
S'extended_fuses'
p530
S'0x05'
p531
sS'high_fuses'
p532
S'0xDA'
p533
sS'low_fuses'
p534
S'0xFF'
p535
sS'lock_bits'
p536
S'0x0F'
p537
sS'file'
p538
S'ATmegaBOOT_168_atmega328_pro_8MHz.hex'
p539
sS'path'
p540
S'arduino:atmega'
p541
sS'unlock_bits'
p542
S'0x3F'
p543
ssS'name'
p544
S'Arduino Fio'
p545
sS'upload'
p546
(dp547
S'speed'
p548
S'57600'
p549
sS'maximum_size'
p550
S'30720'
p551
sS'protocol'
p552
S'arduino'
p553
ssaa(lp554
S'bt328'
p555
a(dp556
S'build'
p557
(dp558
S'core'
p559
S'arduino'
p560
sS'mcu'
p561
S'atmega328p'
p562
sS'f_cpu'
p563
S'16000000L'
p564
sS'variant'
p565
S'eightanaloginputs'
p566
ssS'bootloader'
p567
(dp568
S'extended_fuses'
p569
S'0x05'
p570
sS'high_fuses'
p571
S'0xd8'
p572
sS'low_fuses'
p573
S'0xff'
p574
sS'lock_bits'
p575
S'0x0F'
p576
sS'file'
p577
S'ATmegaBOOT_168_atmega328_bt.hex'
p578
sS'path'
p579
S'bt'
p580
sS'unlock_bits'
p581
S'0x3F'
p582
ssS'name'
p583
S'Arduino BT w/ ATmega328'
p584
sS'upload'
p585
(dp586
S'speed'
p587
S'19200'
p588
sS'maximum_size'
p589
S'28672'
p590
sS'protocol'
p591
S'arduino'
p592
sS'disable_flushing'
p593
S'true'
p594
ssaa(lp595
S'bt'
p596
a(dp597
S'build'
p598
(dp599
S'core'
p600
S'arduino'
p601
sS'mcu'
p602
S'atmega168'
p603
sS'f_cpu'
p604
S'16000000L'
p605
sS'variant'
p606
S'eightanaloginputs'
p607
ssS'bootloader'
p608
(dp609
S'extended_fuses'
p610
S'0x00'
p611
sS'high_fuses'
p612
S'0xdd'
p613
sS'low_fuses'
p614
S'0xff'
p615
sS'lock_bits'
p616
S'0x0F'
p617
sS'file'
p618
S'ATmegaBOOT_168.hex'
p619
sS'path'
p620
S'bt'
p621
sS'unlock_bits'
p622
S'0x3F'
p623
ssS'name'
p624
S'Arduino BT w/ ATmega168'
p625
sS'upload'
p626
(dp627
S'speed'
p628
S'19200'
p629
sS'maximum_size'
p630
S'14336'
p631
sS'protocol'
p632
S'arduino'
p633
sS'disable_flushing'
p634
S'true'
p635
ssaa(lp636
S'lilypad328'
p637
a(dp638
S'build'
p639
(dp640
S'core'
p641
S'arduino'
p642
sS'mcu'
p643
S'atmega328p'
p644
sS'f_cpu'
p645
S'8000000L'
p646
sS'variant'
p647
S'standard'
p648
ssS'bootloader'
p649
(dp650
S'extended_fuses'
p651
S'0x05'
p652
sS'high_fuses'
p653
S'0xDA'
p654
sS'low_fuses'
p655
S'0xFF'
p656
sS'lock_bits'
p657
S'0x0F'
p658
sS'file'
p659
S'ATmegaBOOT_168_atmega328_pro_8MHz.hex'
p660
sS'path'
p661
S'atmega'
p662
sS'unlock_bits'
p663
S'0x3F'
p664
ssS'name'
p665
S'LilyPad Arduino w/ ATmega328'
p666
sS'upload'
p667
(dp668
S'speed'
p669
S'57600'
p670
sS'maximum_size'
p671
S'30720'
p672
sS'protocol'
p673
S'arduino'
p674
ssaa(lp675
S'lilypad'
p676
a(dp677
S'build'
p678
(dp679
S'core'
p680
S'arduino'
p681
sS'mcu'
p682
S'atmega168'
p683
sS'f_cpu'
p684
S'8000000L'
p685
sS'variant'
p686
S'standard'
p687
ssS'bootloader'
p688
(dp689
S'extended_fuses'
p690
S'0x00'
p691
sS'high_fuses'
p692
S'0xdd'
p693
sS'low_fuses'
p694
S'0xe2'
p695
sS'lock_bits'
p696
S'0x0F'
p697
sS'file'
p698
S'LilyPadBOOT_168.hex'
p699
sS'path'
p700
S'lilypad'
p701
sS'unlock_bits'
p702
S'0x3F'
p703
ssS'name'
p704
S'LilyPad Arduino w/ ATmega168'
p705
sS'upload'
p706
(dp707
S'speed'
p708
S'19200'
p709
sS'maximum_size'
p710
S'14336'
p711
sS'protocol'
p712
S'arduino'
p713
ssaa(lp714
S'pro5v328'
p715
a(dp716
S'build'
p717
(dp718
S'core'
p719
S'arduino'
p720
sS'mcu'
p721
S'atmega328p'
p722
sS'f_cpu'
p723
S'16000000L'
p724
sS'variant'
p725
S'standard'
p726
ssS'bootloader'
p727
(dp728
S'extended_fuses'
p729
S'0x05'
p730
sS'high_fuses'
p731
S'0xDA'
p732
sS'low_fuses'
p733
S'0xFF'
p734
sS'lock_bits'
p735
S'0x0F'
p736
sS'file'
p737
S'ATmegaBOOT_168_atmega328.hex'
p738
sS'path'
p739
S'atmega'
p740
sS'unlock_bits'
p741
S'0x3F'
p742
ssS'name'
p743
S'Arduino Pro or Pro Mini (5V, 16 MHz) w/ ATmega328'
p744
sS'upload'
p745
(dp746
S'speed'
p747
S'57600'
p748
sS'maximum_size'
p749
S'30720'
p750
sS'protocol'
p751
S'arduino'
p752
ssaa(lp753
S'pro5v'
p754
a(dp755
S'build'
p756
(dp757
S'core'
p758
S'arduino'
p759
sS'mcu'
p760
S'atmega168'
p761
sS'f_cpu'
p762
S'16000000L'
p763
sS'variant'
p764
S'standard'
p765
ssS'bootloader'
p766
(dp767
S'extended_fuses'
p768
S'0x00'
p769
sS'high_fuses'
p770
S'0xdd'
p771
sS'low_fuses'
p772
S'0xff'
p773
sS'lock_bits'
p774
S'0x0F'
p775
sS'file'
p776
S'ATmegaBOOT_168_diecimila.hex'
p777
sS'path'
p778
S'atmega'
p779
sS'unlock_bits'
p780
S'0x3F'
p781
ssS'name'
p782
S'Arduino Pro or Pro Mini (5V, 16 MHz) w/ ATmega168'
p783
sS'upload'
p784
(dp785
S'speed'
p786
S'19200'
p787
sS'maximum_size'
p788
S'14336'
p789
sS'protocol'
p790
S'arduino'
p791
ssaa(lp792
S'pro328'
p793
a(dp794
S'build'
p795
(dp796
S'core'
p797
S'arduino'
p798
sS'mcu'
p799
S'atmega328p'
p800
sS'f_cpu'
p801
S'8000000L'
p802
sS'variant'
p803
S'standard'
p804
ssS'bootloader'
p805
(dp806
S'extended_fuses'
p807
S'0x05'
p808
sS'high_fuses'
p809
S'0xDA'
p810
sS'low_fuses'
p811
S'0xFF'
p812
sS'lock_bits'
p813
S'0x0F'
p814
sS'file'
p815
S'ATmegaBOOT_168_atmega328_pro_8MHz.hex'
p816
sS'path'
p817
S'atmega'
p818
sS'unlock_bits'
p819
S'0x3F'
p820
ssS'name'
p821
S'Arduino Pro or Pro Mini (3.3V, 8 MHz) w/ ATmega328'
p822
sS'upload'
p823
(dp824
S'speed'
p825
S'57600'
p826
sS'maximum_size'
p827
S'30720'
p828
sS'protocol'
p829
S'arduino'
p830
ssaa(lp831
S'pro'
p832
a(dp833
S'build'
p834
(dp835
S'core'
p836
S'arduino'
p837
sS'mcu'
p838
S'atmega168'
p839
sS'f_cpu'
p840
S'8000000L'
p841
sS'variant'
p842
S'standard'
p843
ssS'bootloader'
p844
(dp845
S'extended_fuses'
p846
S'0x00'
p847
sS'high_fuses'
p848
S'0xdd'
p849
sS'low_fuses'
p850
S'0xc6'
p851
sS'lock_bits'
p852
S'0x0F'
p853
sS'file'
p854
S'ATmegaBOOT_168_pro_8MHz.hex'
p855
sS'path'
p856
S'atmega'
p857
sS'unlock_bits'
p858
S'0x3F'
p859
ssS'name'
p860
S'Arduino Pro or Pro Mini (3.3V, 8 MHz) w/ ATmega168'
p861
sS'upload'
p862
(dp863
S'speed'
p864
S'19200'
p865
sS'maximum_size'
p866
S'14336'
p867
sS'protocol'
p868
S'arduino'
p869
ssaa(lp870
S'atmega168'
p871
a(dp872
S'build'
p873
(dp874
S'core'
p875
S'arduino'
p876
sS'mcu'
p877
S'atmega168'
p878
sS'f_cpu'
p879
S'16000000L'
p880
sS'variant'
p881
S'standard'
p882
ssS'bootloader'
p883
(dp884
S'extended_fuses'
p885
S'0x00'
p886
sS'high_fuses'
p887
S'0xdd'
p888
sS'low_fuses'
p889
S'0xff'
p890
sS'lock_bits'
p891
S'0x0F'
p892
sS'file'
p893
S'ATmegaBOOT_168_ng.hex'
p894
sS'path'
p895
S'atmega'
p896
sS'unlock_bits'
p897
S'0x3F'
p898
ssS'name'
p899
S'Arduino NG or older w/ ATmega168'
p900
sS'upload'
p901
(dp902
S'speed'
p903
S'19200'
p904
sS'maximum_size'
p905
S'14336'
p906
sS'protocol'
p907
S'arduino'
p908
ssaa(lp909
S'atmega8'
p910
a(dp911
S'build'
p912
(dp913
S'core'
p914
S'arduino'
p915
sS'mcu'
p916
S'atmega8'
p917
sS'f_cpu'
p918
S'16000000L'
p919
sS'variant'
p920
S'standard'
p921
ssS'bootloader'
p922
(dp923
S'high_fuses'
p924
S'0xca'
p925
sS'low_fuses'
p926
S'0xdf'
p927
sS'lock_bits'
p928
S'0x0F'
p929
sS'file'
p930
S'ATmegaBOOT.hex'
p931
sS'path'
p932
S'atmega8'
p933
sS'unlock_bits'
p934
S'0x3F'
p935
ssS'name'
p936
S'Arduino NG or older w/ ATmega8'
p937
sS'upload'
p938
(dp939
S'speed'
p940
S'19200'
p941
sS'maximum_size'
p942
S'7168'
p943
sS'protocol'
p944
S'arduino'
p945
ssaatp946
Rp947
(dp948
S'default'
p949
S'uno'
p950
sbtp951
a(S'cxx'
p952
S'/usr/bin/avr-g++'
p953
tp954
a.