(lp0
(S'stty'
p1
S'/bin/stty'
p2
tp3
a(S'version.txt'
p4
S'/usr/share/arduino/lib/version.txt'
p5
tp6
a(S'used_libs'
p7
(lp8
S'lib/TinyGPS'
p9
aS'lib/LSM303'
p10
aS'/usr/share/arduino/libraries/SoftwareSerial'
p11
aS'/usr/share/arduino/libraries/Servo'
p12
aS'lib/ros_lib'
p13
aS'/usr/share/arduino/libraries/Wire'
p14
aS'/usr/share/arduino/hardware/arduino/cores/arduino'
p15
atp16
a(S'cxx'
p17
S'/usr/bin/avr-g++'
p18
tp19
a(S'arduino_variants_dir'
p20
S'/usr/share/arduino/hardware/arduino/variants'
p21
tp22
a(S'arduino_libraries_dir'
p23
S'/usr/share/arduino/libraries'
p24
tp25
a(S'arduino_core_dir'
p26
g15
tp27
a(S'boards.txt'
p28
S'/usr/share/arduino/hardware/arduino/boards.txt'
p29
tp30
a(S'cxxflags'
p31
ccopy_reg
_reconstructor
p32
(cino.utils
SpaceList
p33
c__builtin__
list
p34
(lp35
S'-fno-exceptions'
p36
atp37
Rp38
tp39
a(S'cc'
p40
S'/usr/bin/avr-gcc'
p41
tp42
a(S'avrdude'
p43
S'/usr/share/arduino/hardware/tools/avrdude'
p44
tp45
a(S'avrdude.conf'
p46
S'/usr/share/arduino/hardware/tools/avrdude.conf'
p47
tp48
a(S'names'
p49
(dp50
S'cpp'
p51
S'%s.cpp'
p52
sS'obj'
p53
S'%s.o'
p54
sS'deps'
p55
S'%s.d'
p56
sS'lib'
p57
S'lib%s.a'
p58
stp59
a(S'cflags'
p60
g32
(g33
g34
(lp61
S'-mmcu=atmega328p'
p62
aS'-ffunction-sections'
p63
aS'-fdata-sections'
p64
aS'-g'
p65
aS'-Os'
p66
aS'-w'
p67
aS'-DF_CPU=16000000L'
p68
aS'-DARDUINO=100'
p69
aS'-I/usr/share/arduino/hardware/arduino/cores/arduino'
p70
aS'-I/usr/share/arduino/hardware/arduino/variants/standard'
p71
aS'-Ilib/TinyGPS'
p72
aS'-Ilib/TinyGPS/Examples'
p73
aS'-Ilib/TinyGPS/Examples/static_test'
p74
aS'-Ilib/TinyGPS/Examples/test_with_gps_device'
p75
aS'-Ilib/TinyGPS/Examples/simple_test'
p76
aS'-Ilib/LSM303'
p77
aS'-I/usr/share/arduino/libraries/SoftwareSerial'
p78
aS'-I/usr/share/arduino/libraries/Servo'
p79
aS'-Ilib/ros_lib'
p80
aS'-Ilib/ros_lib/diagnostic_msgs'
p81
aS'-Ilib/ros_lib/ros'
p82
aS'-Ilib/ros_lib/std_msgs'
p83
aS'-Ilib/ros_lib/tf'
p84
aS'-Ilib/ros_lib/nav_msgs'
p85
aS'-Ilib/ros_lib/rosserial_arduino'
p86
aS'-Ilib/ros_lib/rosserial_msgs'
p87
aS'-Ilib/ros_lib/tests'
p88
aS'-Ilib/ros_lib/sensor_msgs'
p89
aS'-Ilib/ros_lib/geometry_msgs'
p90
aS'-Ilib/ros_lib/tests/time_test'
p91
aS'-Ilib/ros_lib/tests/array_test'
p92
aS'-Ilib/ros_lib/tests/float64_test'
p93
aS'-I/usr/share/arduino/libraries/Wire'
p94
aS'-I/usr/share/arduino/libraries/Wire/utility'
p95
aS'-I/usr/share/arduino/hardware/arduino/cores/arduino'
p96
atp97
Rp98
tp99
a(S'elfflags'
p100
g32
(g33
g34
(lp101
g66
aS'-Wl,--gc-sections'
p102
ag62
atp103
Rp104
tp105
a(S'arduino_lib_version'
p106
g32
(cino.environment
Version
p107
c__builtin__
tuple
p108
(I1
I0
tp109
tp110
Rp111
tp112
a(S'objcopy'
p113
S'/usr/bin/avr-objcopy'
p114
tp115
a(S'ar'
p116
S'/usr/bin/avr-ar'
p117
tp118
a(S'board_models'
p119
cino.environment
BoardModels
p120
((lp121
(lp122
S'uno'
p123
a(dp124
S'build'
p125
(dp126
S'core'
p127
S'arduino'
p128
sS'mcu'
p129
S'atmega328p'
p130
sS'f_cpu'
p131
S'16000000L'
p132
sS'variant'
p133
S'standard'
p134
ssS'bootloader'
p135
(dp136
S'extended_fuses'
p137
S'0x05'
p138
sS'high_fuses'
p139
S'0xde'
p140
sS'low_fuses'
p141
S'0xff'
p142
sS'lock_bits'
p143
S'0x0F'
p144
sS'file'
p145
S'optiboot_atmega328.hex'
p146
sS'path'
p147
S'optiboot'
p148
sS'unlock_bits'
p149
S'0x3F'
p150
ssS'upload'
p151
(dp152
S'protocol'
p153
S'arduino'
p154
sS'maximum_size'
p155
S'32256'
p156
sS'speed'
p157
S'115200'
p158
ssS'name'
p159
S'Arduino Uno'
p160
saa(lp161
S'alamode'
p162
a(dp163
S'build'
p164
(dp165
S'core'
p166
S'arduino'
p167
sS'mcu'
p168
S'atmega328p'
p169
sS'f_cpu'
p170
S'16000000L'
p171
sS'variant'
p172
S'standard'
p173
ssS'bootloader'
p174
(dp175
S'extended_fuses'
p176
S'0x05'
p177
sS'high_fuses'
p178
S'0xde'
p179
sS'low_fuses'
p180
S'0xff'
p181
sS'lock_bits'
p182
S'0x0F'
p183
sS'file'
p184
S'optiboot_atmega328.hex'
p185
sS'path'
p186
S'optiboot'
p187
sS'unlock_bits'
p188
S'0x3F'
p189
ssS'upload'
p190
(dp191
S'protocol'
p192
S'alamode'
p193
sS'maximum_size'
p194
S'32256'
p195
sS'speed'
p196
S'115200'
p197
ssS'name'
p198
S'AlaMode'
p199
saa(lp200
S'atmega328'
p201
a(dp202
S'build'
p203
(dp204
S'core'
p205
S'arduino'
p206
sS'mcu'
p207
S'atmega328p'
p208
sS'f_cpu'
p209
S'16000000L'
p210
sS'variant'
p211
S'standard'
p212
ssS'bootloader'
p213
(dp214
S'extended_fuses'
p215
S'0x05'
p216
sS'high_fuses'
p217
S'0xDA'
p218
sS'low_fuses'
p219
S'0xFF'
p220
sS'lock_bits'
p221
S'0x0F'
p222
sS'file'
p223
S'ATmegaBOOT_168_atmega328.hex'
p224
sS'path'
p225
S'atmega'
p226
sS'unlock_bits'
p227
S'0x3F'
p228
ssS'upload'
p229
(dp230
S'protocol'
p231
S'arduino'
p232
sS'maximum_size'
p233
S'30720'
p234
sS'speed'
p235
S'57600'
p236
ssS'name'
p237
S'Arduino Duemilanove w/ ATmega328'
p238
saa(lp239
S'diecimila'
p240
a(dp241
S'build'
p242
(dp243
S'core'
p244
S'arduino'
p245
sS'mcu'
p246
S'atmega168'
p247
sS'f_cpu'
p248
S'16000000L'
p249
sS'variant'
p250
S'standard'
p251
ssS'bootloader'
p252
(dp253
S'extended_fuses'
p254
S'0x00'
p255
sS'high_fuses'
p256
S'0xdd'
p257
sS'low_fuses'
p258
S'0xff'
p259
sS'lock_bits'
p260
S'0x0F'
p261
sS'file'
p262
S'ATmegaBOOT_168_diecimila.hex'
p263
sS'path'
p264
S'atmega'
p265
sS'unlock_bits'
p266
S'0x3F'
p267
ssS'upload'
p268
(dp269
S'protocol'
p270
S'arduino'
p271
sS'maximum_size'
p272
S'14336'
p273
sS'speed'
p274
S'19200'
p275
ssS'name'
p276
S'Arduino Diecimila or Duemilanove w/ ATmega168'
p277
saa(lp278
S'nano328'
p279
a(dp280
S'build'
p281
(dp282
S'core'
p283
S'arduino'
p284
sS'mcu'
p285
S'atmega328p'
p286
sS'f_cpu'
p287
S'16000000L'
p288
sS'variant'
p289
S'eightanaloginputs'
p290
ssS'bootloader'
p291
(dp292
S'extended_fuses'
p293
S'0x05'
p294
sS'high_fuses'
p295
S'0xDA'
p296
sS'low_fuses'
p297
S'0xFF'
p298
sS'lock_bits'
p299
S'0x0F'
p300
sS'file'
p301
S'ATmegaBOOT_168_atmega328.hex'
p302
sS'path'
p303
S'atmega'
p304
sS'unlock_bits'
p305
S'0x3F'
p306
ssS'upload'
p307
(dp308
S'protocol'
p309
S'arduino'
p310
sS'maximum_size'
p311
S'30720'
p312
sS'speed'
p313
S'57600'
p314
ssS'name'
p315
S'Arduino Nano w/ ATmega328'
p316
saa(lp317
S'nano'
p318
a(dp319
S'build'
p320
(dp321
S'core'
p322
S'arduino'
p323
sS'mcu'
p324
S'atmega168'
p325
sS'f_cpu'
p326
S'16000000L'
p327
sS'variant'
p328
S'eightanaloginputs'
p329
ssS'bootloader'
p330
(dp331
S'extended_fuses'
p332
S'0x00'
p333
sS'high_fuses'
p334
S'0xdd'
p335
sS'low_fuses'
p336
S'0xff'
p337
sS'lock_bits'
p338
S'0x0F'
p339
sS'file'
p340
S'ATmegaBOOT_168_diecimila.hex'
p341
sS'path'
p342
S'atmega'
p343
sS'unlock_bits'
p344
S'0x3F'
p345
ssS'upload'
p346
(dp347
S'protocol'
p348
S'arduino'
p349
sS'maximum_size'
p350
S'14336'
p351
sS'speed'
p352
S'19200'
p353
ssS'name'
p354
S'Arduino Nano w/ ATmega168'
p355
saa(lp356
S'mega2560'
p357
a(dp358
S'build'
p359
(dp360
S'core'
p361
S'arduino'
p362
sS'mcu'
p363
S'atmega2560'
p364
sS'f_cpu'
p365
S'16000000L'
p366
sS'variant'
p367
S'mega'
p368
ssS'bootloader'
p369
(dp370
S'extended_fuses'
p371
S'0xFD'
p372
sS'high_fuses'
p373
S'0xD8'
p374
sS'low_fuses'
p375
S'0xFF'
p376
sS'lock_bits'
p377
S'0x0F'
p378
sS'file'
p379
S'stk500boot_v2_mega2560.hex'
p380
sS'path'
p381
S'stk500v2'
p382
sS'unlock_bits'
p383
S'0x3F'
p384
ssS'upload'
p385
(dp386
S'protocol'
p387
S'stk500v2'
p388
sS'maximum_size'
p389
S'258048'
p390
sS'speed'
p391
S'115200'
p392
ssS'name'
p393
S'Arduino Mega 2560 or Mega ADK'
p394
saa(lp395
S'mega'
p396
a(dp397
S'build'
p398
(dp399
S'core'
p400
S'arduino'
p401
sS'mcu'
p402
S'atmega1280'
p403
sS'f_cpu'
p404
S'16000000L'
p405
sS'variant'
p406
S'mega'
p407
ssS'bootloader'
p408
(dp409
S'extended_fuses'
p410
S'0xF5'
p411
sS'high_fuses'
p412
S'0xDA'
p413
sS'low_fuses'
p414
S'0xFF'
p415
sS'lock_bits'
p416
S'0x0F'
p417
sS'file'
p418
S'ATmegaBOOT_168_atmega1280.hex'
p419
sS'path'
p420
S'atmega'
p421
sS'unlock_bits'
p422
S'0x3F'
p423
ssS'upload'
p424
(dp425
S'protocol'
p426
S'arduino'
p427
sS'maximum_size'
p428
S'126976'
p429
sS'speed'
p430
S'57600'
p431
ssS'name'
p432
S'Arduino Mega (ATmega1280)'
p433
saa(lp434
S'mini328'
p435
a(dp436
S'build'
p437
(dp438
S'core'
p439
S'arduino'
p440
sS'mcu'
p441
S'atmega328p'
p442
sS'f_cpu'
p443
S'16000000L'
p444
sS'variant'
p445
S'eightanaloginputs'
p446
ssS'bootloader'
p447
(dp448
S'extended_fuses'
p449
S'0x05'
p450
sS'high_fuses'
p451
S'0xd8'
p452
sS'low_fuses'
p453
S'0xff'
p454
sS'lock_bits'
p455
S'0x0F'
p456
sS'file'
p457
S'optiboot_atmega328-Mini.hex'
p458
sS'path'
p459
S'optiboot'
p460
sS'unlock_bits'
p461
S'0x3F'
p462
ssS'upload'
p463
(dp464
S'protocol'
p465
S'stk500'
p466
sS'maximum_size'
p467
S'28672'
p468
sS'speed'
p469
S'115200'
p470
ssS'name'
p471
S'Arduino Mini w/ ATmega328'
p472
saa(lp473
S'mini'
p474
a(dp475
S'build'
p476
(dp477
S'core'
p478
S'arduino'
p479
sS'mcu'
p480
S'atmega168'
p481
sS'f_cpu'
p482
S'16000000L'
p483
sS'variant'
p484
S'eightanaloginputs'
p485
ssS'bootloader'
p486
(dp487
S'extended_fuses'
p488
S'0x00'
p489
sS'high_fuses'
p490
S'0xdd'
p491
sS'low_fuses'
p492
S'0xff'
p493
sS'lock_bits'
p494
S'0x0F'
p495
sS'file'
p496
S'ATmegaBOOT_168_ng.hex'
p497
sS'path'
p498
S'atmega'
p499
sS'unlock_bits'
p500
S'0x3F'
p501
ssS'upload'
p502
(dp503
S'protocol'
p504
S'arduino'
p505
sS'maximum_size'
p506
S'14336'
p507
sS'speed'
p508
S'19200'
p509
ssS'name'
p510
S'Arduino Mini w/ ATmega168'
p511
saa(lp512
S'ethernet'
p513
a(dp514
S'build'
p515
(dp516
S'variant'
p517
S'standard'
p518
sS'mcu'
p519
S'atmega328p'
p520
sS'f_cpu'
p521
S'16000000L'
p522
sS'core'
p523
S'arduino'
p524
ssS'bootloader'
p525
(dp526
S'extended_fuses'
p527
S'0x05'
p528
sS'high_fuses'
p529
S'0xde'
p530
sS'low_fuses'
p531
S'0xff'
p532
sS'lock_bits'
p533
S'0x0F'
p534
sS'file'
p535
S'optiboot_atmega328.hex'
p536
sS'path'
p537
S'optiboot'
p538
sS'unlock_bits'
p539
S'0x3F'
p540
ssS'upload'
p541
(dp542
S'protocol'
p543
S'arduino'
p544
sS'maximum_size'
p545
S'32256'
p546
sS'speed'
p547
S'115200'
p548
ssS'name'
p549
S'Arduino Ethernet'
p550
saa(lp551
S'fio'
p552
a(dp553
S'build'
p554
(dp555
S'core'
p556
S'arduino'
p557
sS'mcu'
p558
S'atmega328p'
p559
sS'f_cpu'
p560
S'8000000L'
p561
sS'variant'
p562
S'eightanaloginputs'
p563
ssS'bootloader'
p564
(dp565
S'extended_fuses'
p566
S'0x05'
p567
sS'high_fuses'
p568
S'0xDA'
p569
sS'low_fuses'
p570
S'0xFF'
p571
sS'lock_bits'
p572
S'0x0F'
p573
sS'file'
p574
S'ATmegaBOOT_168_atmega328_pro_8MHz.hex'
p575
sS'path'
p576
S'arduino:atmega'
p577
sS'unlock_bits'
p578
S'0x3F'
p579
ssS'upload'
p580
(dp581
S'protocol'
p582
S'arduino'
p583
sS'maximum_size'
p584
S'30720'
p585
sS'speed'
p586
S'57600'
p587
ssS'name'
p588
S'Arduino Fio'
p589
saa(lp590
S'bt328'
p591
a(dp592
S'build'
p593
(dp594
S'core'
p595
S'arduino'
p596
sS'mcu'
p597
S'atmega328p'
p598
sS'f_cpu'
p599
S'16000000L'
p600
sS'variant'
p601
S'eightanaloginputs'
p602
ssS'bootloader'
p603
(dp604
S'extended_fuses'
p605
S'0x05'
p606
sS'high_fuses'
p607
S'0xd8'
p608
sS'low_fuses'
p609
S'0xff'
p610
sS'lock_bits'
p611
S'0x0F'
p612
sS'file'
p613
S'ATmegaBOOT_168_atmega328_bt.hex'
p614
sS'path'
p615
S'bt'
p616
sS'unlock_bits'
p617
S'0x3F'
p618
ssS'upload'
p619
(dp620
S'protocol'
p621
S'arduino'
p622
sS'maximum_size'
p623
S'28672'
p624
sS'speed'
p625
S'19200'
p626
sS'disable_flushing'
p627
S'true'
p628
ssS'name'
p629
S'Arduino BT w/ ATmega328'
p630
saa(lp631
S'bt'
p632
a(dp633
S'build'
p634
(dp635
S'core'
p636
S'arduino'
p637
sS'mcu'
p638
S'atmega168'
p639
sS'f_cpu'
p640
S'16000000L'
p641
sS'variant'
p642
S'eightanaloginputs'
p643
ssS'bootloader'
p644
(dp645
S'extended_fuses'
p646
S'0x00'
p647
sS'high_fuses'
p648
S'0xdd'
p649
sS'low_fuses'
p650
S'0xff'
p651
sS'lock_bits'
p652
S'0x0F'
p653
sS'file'
p654
S'ATmegaBOOT_168.hex'
p655
sS'path'
p656
S'bt'
p657
sS'unlock_bits'
p658
S'0x3F'
p659
ssS'upload'
p660
(dp661
S'protocol'
p662
S'arduino'
p663
sS'maximum_size'
p664
S'14336'
p665
sS'speed'
p666
S'19200'
p667
sS'disable_flushing'
p668
S'true'
p669
ssS'name'
p670
S'Arduino BT w/ ATmega168'
p671
saa(lp672
S'lilypad328'
p673
a(dp674
S'build'
p675
(dp676
S'core'
p677
S'arduino'
p678
sS'mcu'
p679
S'atmega328p'
p680
sS'f_cpu'
p681
S'8000000L'
p682
sS'variant'
p683
S'standard'
p684
ssS'bootloader'
p685
(dp686
S'extended_fuses'
p687
S'0x05'
p688
sS'high_fuses'
p689
S'0xDA'
p690
sS'low_fuses'
p691
S'0xFF'
p692
sS'lock_bits'
p693
S'0x0F'
p694
sS'file'
p695
S'ATmegaBOOT_168_atmega328_pro_8MHz.hex'
p696
sS'path'
p697
S'atmega'
p698
sS'unlock_bits'
p699
S'0x3F'
p700
ssS'upload'
p701
(dp702
S'protocol'
p703
S'arduino'
p704
sS'maximum_size'
p705
S'30720'
p706
sS'speed'
p707
S'57600'
p708
ssS'name'
p709
S'LilyPad Arduino w/ ATmega328'
p710
saa(lp711
S'lilypad'
p712
a(dp713
S'build'
p714
(dp715
S'core'
p716
S'arduino'
p717
sS'mcu'
p718
S'atmega168'
p719
sS'f_cpu'
p720
S'8000000L'
p721
sS'variant'
p722
S'standard'
p723
ssS'bootloader'
p724
(dp725
S'extended_fuses'
p726
S'0x00'
p727
sS'high_fuses'
p728
S'0xdd'
p729
sS'low_fuses'
p730
S'0xe2'
p731
sS'lock_bits'
p732
S'0x0F'
p733
sS'file'
p734
S'LilyPadBOOT_168.hex'
p735
sS'path'
p736
S'lilypad'
p737
sS'unlock_bits'
p738
S'0x3F'
p739
ssS'upload'
p740
(dp741
S'protocol'
p742
S'arduino'
p743
sS'maximum_size'
p744
S'14336'
p745
sS'speed'
p746
S'19200'
p747
ssS'name'
p748
S'LilyPad Arduino w/ ATmega168'
p749
saa(lp750
S'pro5v328'
p751
a(dp752
S'build'
p753
(dp754
S'core'
p755
S'arduino'
p756
sS'mcu'
p757
S'atmega328p'
p758
sS'f_cpu'
p759
S'16000000L'
p760
sS'variant'
p761
S'standard'
p762
ssS'bootloader'
p763
(dp764
S'extended_fuses'
p765
S'0x05'
p766
sS'high_fuses'
p767
S'0xDA'
p768
sS'low_fuses'
p769
S'0xFF'
p770
sS'lock_bits'
p771
S'0x0F'
p772
sS'file'
p773
S'ATmegaBOOT_168_atmega328.hex'
p774
sS'path'
p775
S'atmega'
p776
sS'unlock_bits'
p777
S'0x3F'
p778
ssS'upload'
p779
(dp780
S'protocol'
p781
S'arduino'
p782
sS'maximum_size'
p783
S'30720'
p784
sS'speed'
p785
S'57600'
p786
ssS'name'
p787
S'Arduino Pro or Pro Mini (5V, 16 MHz) w/ ATmega328'
p788
saa(lp789
S'pro5v'
p790
a(dp791
S'build'
p792
(dp793
S'core'
p794
S'arduino'
p795
sS'mcu'
p796
S'atmega168'
p797
sS'f_cpu'
p798
S'16000000L'
p799
sS'variant'
p800
S'standard'
p801
ssS'bootloader'
p802
(dp803
S'extended_fuses'
p804
S'0x00'
p805
sS'high_fuses'
p806
S'0xdd'
p807
sS'low_fuses'
p808
S'0xff'
p809
sS'lock_bits'
p810
S'0x0F'
p811
sS'file'
p812
S'ATmegaBOOT_168_diecimila.hex'
p813
sS'path'
p814
S'atmega'
p815
sS'unlock_bits'
p816
S'0x3F'
p817
ssS'upload'
p818
(dp819
S'protocol'
p820
S'arduino'
p821
sS'maximum_size'
p822
S'14336'
p823
sS'speed'
p824
S'19200'
p825
ssS'name'
p826
S'Arduino Pro or Pro Mini (5V, 16 MHz) w/ ATmega168'
p827
saa(lp828
S'pro328'
p829
a(dp830
S'build'
p831
(dp832
S'core'
p833
S'arduino'
p834
sS'mcu'
p835
S'atmega328p'
p836
sS'f_cpu'
p837
S'8000000L'
p838
sS'variant'
p839
S'standard'
p840
ssS'bootloader'
p841
(dp842
S'extended_fuses'
p843
S'0x05'
p844
sS'high_fuses'
p845
S'0xDA'
p846
sS'low_fuses'
p847
S'0xFF'
p848
sS'lock_bits'
p849
S'0x0F'
p850
sS'file'
p851
S'ATmegaBOOT_168_atmega328_pro_8MHz.hex'
p852
sS'path'
p853
S'atmega'
p854
sS'unlock_bits'
p855
S'0x3F'
p856
ssS'upload'
p857
(dp858
S'protocol'
p859
S'arduino'
p860
sS'maximum_size'
p861
S'30720'
p862
sS'speed'
p863
S'57600'
p864
ssS'name'
p865
S'Arduino Pro or Pro Mini (3.3V, 8 MHz) w/ ATmega328'
p866
saa(lp867
S'pro'
p868
a(dp869
S'build'
p870
(dp871
S'core'
p872
S'arduino'
p873
sS'mcu'
p874
S'atmega168'
p875
sS'f_cpu'
p876
S'8000000L'
p877
sS'variant'
p878
S'standard'
p879
ssS'bootloader'
p880
(dp881
S'extended_fuses'
p882
S'0x00'
p883
sS'high_fuses'
p884
S'0xdd'
p885
sS'low_fuses'
p886
S'0xc6'
p887
sS'lock_bits'
p888
S'0x0F'
p889
sS'file'
p890
S'ATmegaBOOT_168_pro_8MHz.hex'
p891
sS'path'
p892
S'atmega'
p893
sS'unlock_bits'
p894
S'0x3F'
p895
ssS'upload'
p896
(dp897
S'protocol'
p898
S'arduino'
p899
sS'maximum_size'
p900
S'14336'
p901
sS'speed'
p902
S'19200'
p903
ssS'name'
p904
S'Arduino Pro or Pro Mini (3.3V, 8 MHz) w/ ATmega168'
p905
saa(lp906
S'atmega168'
p907
a(dp908
S'build'
p909
(dp910
S'core'
p911
S'arduino'
p912
sS'mcu'
p913
S'atmega168'
p914
sS'f_cpu'
p915
S'16000000L'
p916
sS'variant'
p917
S'standard'
p918
ssS'bootloader'
p919
(dp920
S'extended_fuses'
p921
S'0x00'
p922
sS'high_fuses'
p923
S'0xdd'
p924
sS'low_fuses'
p925
S'0xff'
p926
sS'lock_bits'
p927
S'0x0F'
p928
sS'file'
p929
S'ATmegaBOOT_168_ng.hex'
p930
sS'path'
p931
S'atmega'
p932
sS'unlock_bits'
p933
S'0x3F'
p934
ssS'upload'
p935
(dp936
S'protocol'
p937
S'arduino'
p938
sS'maximum_size'
p939
S'14336'
p940
sS'speed'
p941
S'19200'
p942
ssS'name'
p943
S'Arduino NG or older w/ ATmega168'
p944
saa(lp945
S'atmega8'
p946
a(dp947
S'build'
p948
(dp949
S'core'
p950
S'arduino'
p951
sS'mcu'
p952
S'atmega8'
p953
sS'f_cpu'
p954
S'16000000L'
p955
sS'variant'
p956
S'standard'
p957
ssS'bootloader'
p958
(dp959
S'high_fuses'
p960
S'0xca'
p961
sS'low_fuses'
p962
S'0xdf'
p963
sS'lock_bits'
p964
S'0x0F'
p965
sS'file'
p966
S'ATmegaBOOT.hex'
p967
sS'path'
p968
S'atmega8'
p969
sS'unlock_bits'
p970
S'0x3F'
p971
ssS'upload'
p972
(dp973
S'protocol'
p974
S'arduino'
p975
sS'maximum_size'
p976
S'7168'
p977
sS'speed'
p978
S'19200'
p979
ssS'name'
p980
S'Arduino NG or older w/ ATmega8'
p981
saatp982
Rp983
(dp984
S'default'
p985
S'uno'
p986
sbtp987
a(S'deps'
p988
g32
(g33
g34
(lp989
S'.build/alamode/src/dependencies.d'
p990
aS'.build/alamode/arduino/dependencies.d'
p991
aS'.build/alamode/TinyGPS/dependencies.d'
p992
aS'.build/alamode/LSM303/dependencies.d'
p993
aS'.build/alamode/Wire/dependencies.d'
p994
aS'.build/alamode/SoftwareSerial/dependencies.d'
p995
aS'.build/alamode/Servo/dependencies.d'
p996
aS'.build/alamode/ros_lib/dependencies.d'
p997
atp998
Rp999
tp1000
a(S'build_dir'
p1001
S'.build/alamode'
p1002
tp1003
a.