(lp0
(S'stty'
p1
S'/bin/stty'
p2
tp3
a(S'version.txt'
p4
S'/usr/share/arduino/lib/version.txt'
p5
tp6
a(S'used_libs'
p7
(lp8
S'lib/TinyGPS'
p9
aS'lib/LSM303'
p10
aS'/usr/share/arduino/libraries/SoftwareSerial'
p11
aS'/usr/share/arduino/libraries/Servo'
p12
aS'lib/ros_lib'
p13
aS'/usr/share/arduino/libraries/Wire'
p14
aS'/usr/share/arduino/hardware/arduino/cores/arduino'
p15
atp16
a(S'cc'
p17
S'/usr/bin/avr-gcc'
p18
tp19
a(S'arduino_variants_dir'
p20
S'/usr/share/arduino/hardware/arduino/variants'
p21
tp22
a(S'arduino_libraries_dir'
p23
S'/usr/share/arduino/libraries'
p24
tp25
a(S'arduino_core_dir'
p26
g15
tp27
a(S'boards.txt'
p28
S'/usr/share/arduino/hardware/arduino/boards.txt'
p29
tp30
a(S'cxxflags'
p31
ccopy_reg
_reconstructor
p32
(cino.utils
SpaceList
p33
c__builtin__
list
p34
(lp35
S'-fno-exceptions'
p36
atp37
Rp38
tp39
a(S'cxx'
p40
S'/usr/bin/avr-g++'
p41
tp42
a(S'avrdude'
p43
S'/usr/share/arduino/hardware/tools/avrdude'
p44
tp45
a(S'avrdude.conf'
p46
S'/usr/share/arduino/hardware/tools/avrdude.conf'
p47
tp48
a(S'names'
p49
(dp50
S'cpp'
p51
S'%s.cpp'
p52
sS'obj'
p53
S'%s.o'
p54
sS'lib'
p55
S'lib%s.a'
p56
sS'deps'
p57
S'%s.d'
p58
stp59
a(S'cflags'
p60
g32
(g33
g34
(lp61
S'-mmcu=atmega328p'
p62
aS'-ffunction-sections'
p63
aS'-fdata-sections'
p64
aS'-g'
p65
aS'-Os'
p66
aS'-w'
p67
aS'-DF_CPU=16000000L'
p68
aS'-DARDUINO=100'
p69
aS'-I/usr/share/arduino/hardware/arduino/cores/arduino'
p70
aS'-I/usr/share/arduino/hardware/arduino/variants/standard'
p71
aS'-Ilib/TinyGPS'
p72
aS'-Ilib/TinyGPS/Examples'
p73
aS'-Ilib/TinyGPS/Examples/static_test'
p74
aS'-Ilib/TinyGPS/Examples/test_with_gps_device'
p75
aS'-Ilib/TinyGPS/Examples/simple_test'
p76
aS'-Ilib/LSM303'
p77
aS'-I/usr/share/arduino/libraries/SoftwareSerial'
p78
aS'-I/usr/share/arduino/libraries/Servo'
p79
aS'-Ilib/ros_lib'
p80
aS'-Ilib/ros_lib/diagnostic_msgs'
p81
aS'-Ilib/ros_lib/ros'
p82
aS'-Ilib/ros_lib/std_msgs'
p83
aS'-Ilib/ros_lib/tf'
p84
aS'-Ilib/ros_lib/nav_msgs'
p85
aS'-Ilib/ros_lib/rosserial_arduino'
p86
aS'-Ilib/ros_lib/rosserial_msgs'
p87
aS'-Ilib/ros_lib/tests'
p88
aS'-Ilib/ros_lib/sensor_msgs'
p89
aS'-Ilib/ros_lib/geometry_msgs'
p90
aS'-Ilib/ros_lib/tests/time_test'
p91
aS'-Ilib/ros_lib/tests/array_test'
p92
aS'-Ilib/ros_lib/tests/float64_test'
p93
aS'-I/usr/share/arduino/libraries/Wire'
p94
aS'-I/usr/share/arduino/libraries/Wire/utility'
p95
aS'-I/usr/share/arduino/hardware/arduino/cores/arduino'
p96
atp97
Rp98
tp99
a(S'elfflags'
p100
g32
(g33
g34
(lp101
g66
aS'-Wl,--gc-sections'
p102
ag62
atp103
Rp104
tp105
a(S'arduino_lib_version'
p106
g32
(cino.environment
Version
p107
c__builtin__
tuple
p108
(I1
I0
tp109
tp110
Rp111
tp112
a(S'objcopy'
p113
S'/usr/bin/avr-objcopy'
p114
tp115
a(S'ar'
p116
S'/usr/bin/avr-ar'
p117
tp118
a(S'board_models'
p119
cino.environment
BoardModels
p120
((lp121
(lp122
S'uno'
p123
a(dp124
S'bootloader'
p125
(dp126
S'extended_fuses'
p127
S'0x05'
p128
sS'high_fuses'
p129
S'0xde'
p130
sS'low_fuses'
p131
S'0xff'
p132
sS'lock_bits'
p133
S'0x0F'
p134
sS'file'
p135
S'optiboot_atmega328.hex'
p136
sS'path'
p137
S'optiboot'
p138
sS'unlock_bits'
p139
S'0x3F'
p140
ssS'build'
p141
(dp142
S'core'
p143
S'arduino'
p144
sS'mcu'
p145
S'atmega328p'
p146
sS'f_cpu'
p147
S'16000000L'
p148
sS'variant'
p149
S'standard'
p150
ssS'name'
p151
S'Arduino Uno'
p152
sS'upload'
p153
(dp154
S'speed'
p155
S'115200'
p156
sS'maximum_size'
p157
S'32256'
p158
sS'protocol'
p159
S'arduino'
p160
ssaa(lp161
S'alamode'
p162
a(dp163
S'bootloader'
p164
(dp165
S'extended_fuses'
p166
S'0x05'
p167
sS'high_fuses'
p168
S'0xde'
p169
sS'low_fuses'
p170
S'0xff'
p171
sS'lock_bits'
p172
S'0x0F'
p173
sS'file'
p174
S'optiboot_atmega328.hex'
p175
sS'path'
p176
S'optiboot'
p177
sS'unlock_bits'
p178
S'0x3F'
p179
ssS'build'
p180
(dp181
S'core'
p182
S'arduino'
p183
sS'mcu'
p184
S'atmega328p'
p185
sS'f_cpu'
p186
S'16000000L'
p187
sS'variant'
p188
S'standard'
p189
ssS'name'
p190
S'AlaMode'
p191
sS'upload'
p192
(dp193
S'speed'
p194
S'115200'
p195
sS'maximum_size'
p196
S'32256'
p197
sS'protocol'
p198
S'alamode'
p199
ssaa(lp200
S'atmega328'
p201
a(dp202
S'bootloader'
p203
(dp204
S'extended_fuses'
p205
S'0x05'
p206
sS'high_fuses'
p207
S'0xDA'
p208
sS'low_fuses'
p209
S'0xFF'
p210
sS'lock_bits'
p211
S'0x0F'
p212
sS'file'
p213
S'ATmegaBOOT_168_atmega328.hex'
p214
sS'path'
p215
S'atmega'
p216
sS'unlock_bits'
p217
S'0x3F'
p218
ssS'build'
p219
(dp220
S'core'
p221
S'arduino'
p222
sS'mcu'
p223
S'atmega328p'
p224
sS'f_cpu'
p225
S'16000000L'
p226
sS'variant'
p227
S'standard'
p228
ssS'name'
p229
S'Arduino Duemilanove w/ ATmega328'
p230
sS'upload'
p231
(dp232
S'speed'
p233
S'57600'
p234
sS'maximum_size'
p235
S'30720'
p236
sS'protocol'
p237
S'arduino'
p238
ssaa(lp239
S'diecimila'
p240
a(dp241
S'bootloader'
p242
(dp243
S'extended_fuses'
p244
S'0x00'
p245
sS'high_fuses'
p246
S'0xdd'
p247
sS'low_fuses'
p248
S'0xff'
p249
sS'lock_bits'
p250
S'0x0F'
p251
sS'file'
p252
S'ATmegaBOOT_168_diecimila.hex'
p253
sS'path'
p254
S'atmega'
p255
sS'unlock_bits'
p256
S'0x3F'
p257
ssS'build'
p258
(dp259
S'core'
p260
S'arduino'
p261
sS'mcu'
p262
S'atmega168'
p263
sS'f_cpu'
p264
S'16000000L'
p265
sS'variant'
p266
S'standard'
p267
ssS'name'
p268
S'Arduino Diecimila or Duemilanove w/ ATmega168'
p269
sS'upload'
p270
(dp271
S'speed'
p272
S'19200'
p273
sS'maximum_size'
p274
S'14336'
p275
sS'protocol'
p276
S'arduino'
p277
ssaa(lp278
S'nano328'
p279
a(dp280
S'bootloader'
p281
(dp282
S'extended_fuses'
p283
S'0x05'
p284
sS'high_fuses'
p285
S'0xDA'
p286
sS'low_fuses'
p287
S'0xFF'
p288
sS'lock_bits'
p289
S'0x0F'
p290
sS'file'
p291
S'ATmegaBOOT_168_atmega328.hex'
p292
sS'path'
p293
S'atmega'
p294
sS'unlock_bits'
p295
S'0x3F'
p296
ssS'build'
p297
(dp298
S'core'
p299
S'arduino'
p300
sS'mcu'
p301
S'atmega328p'
p302
sS'f_cpu'
p303
S'16000000L'
p304
sS'variant'
p305
S'eightanaloginputs'
p306
ssS'name'
p307
S'Arduino Nano w/ ATmega328'
p308
sS'upload'
p309
(dp310
S'speed'
p311
S'57600'
p312
sS'maximum_size'
p313
S'30720'
p314
sS'protocol'
p315
S'arduino'
p316
ssaa(lp317
S'nano'
p318
a(dp319
S'bootloader'
p320
(dp321
S'extended_fuses'
p322
S'0x00'
p323
sS'high_fuses'
p324
S'0xdd'
p325
sS'low_fuses'
p326
S'0xff'
p327
sS'lock_bits'
p328
S'0x0F'
p329
sS'file'
p330
S'ATmegaBOOT_168_diecimila.hex'
p331
sS'path'
p332
S'atmega'
p333
sS'unlock_bits'
p334
S'0x3F'
p335
ssS'build'
p336
(dp337
S'core'
p338
S'arduino'
p339
sS'mcu'
p340
S'atmega168'
p341
sS'f_cpu'
p342
S'16000000L'
p343
sS'variant'
p344
S'eightanaloginputs'
p345
ssS'name'
p346
S'Arduino Nano w/ ATmega168'
p347
sS'upload'
p348
(dp349
S'speed'
p350
S'19200'
p351
sS'maximum_size'
p352
S'14336'
p353
sS'protocol'
p354
S'arduino'
p355
ssaa(lp356
S'mega2560'
p357
a(dp358
S'bootloader'
p359
(dp360
S'extended_fuses'
p361
S'0xFD'
p362
sS'high_fuses'
p363
S'0xD8'
p364
sS'low_fuses'
p365
S'0xFF'
p366
sS'lock_bits'
p367
S'0x0F'
p368
sS'file'
p369
S'stk500boot_v2_mega2560.hex'
p370
sS'path'
p371
S'stk500v2'
p372
sS'unlock_bits'
p373
S'0x3F'
p374
ssS'build'
p375
(dp376
S'core'
p377
S'arduino'
p378
sS'mcu'
p379
S'atmega2560'
p380
sS'f_cpu'
p381
S'16000000L'
p382
sS'variant'
p383
S'mega'
p384
ssS'name'
p385
S'Arduino Mega 2560 or Mega ADK'
p386
sS'upload'
p387
(dp388
S'speed'
p389
S'115200'
p390
sS'maximum_size'
p391
S'258048'
p392
sS'protocol'
p393
S'stk500v2'
p394
ssaa(lp395
S'mega'
p396
a(dp397
S'bootloader'
p398
(dp399
S'extended_fuses'
p400
S'0xF5'
p401
sS'high_fuses'
p402
S'0xDA'
p403
sS'low_fuses'
p404
S'0xFF'
p405
sS'lock_bits'
p406
S'0x0F'
p407
sS'file'
p408
S'ATmegaBOOT_168_atmega1280.hex'
p409
sS'path'
p410
S'atmega'
p411
sS'unlock_bits'
p412
S'0x3F'
p413
ssS'build'
p414
(dp415
S'core'
p416
S'arduino'
p417
sS'mcu'
p418
S'atmega1280'
p419
sS'f_cpu'
p420
S'16000000L'
p421
sS'variant'
p422
S'mega'
p423
ssS'name'
p424
S'Arduino Mega (ATmega1280)'
p425
sS'upload'
p426
(dp427
S'speed'
p428
S'57600'
p429
sS'maximum_size'
p430
S'126976'
p431
sS'protocol'
p432
S'arduino'
p433
ssaa(lp434
S'mini328'
p435
a(dp436
S'bootloader'
p437
(dp438
S'extended_fuses'
p439
S'0x05'
p440
sS'high_fuses'
p441
S'0xd8'
p442
sS'low_fuses'
p443
S'0xff'
p444
sS'lock_bits'
p445
S'0x0F'
p446
sS'file'
p447
S'optiboot_atmega328-Mini.hex'
p448
sS'path'
p449
S'optiboot'
p450
sS'unlock_bits'
p451
S'0x3F'
p452
ssS'build'
p453
(dp454
S'core'
p455
S'arduino'
p456
sS'mcu'
p457
S'atmega328p'
p458
sS'f_cpu'
p459
S'16000000L'
p460
sS'variant'
p461
S'eightanaloginputs'
p462
ssS'name'
p463
S'Arduino Mini w/ ATmega328'
p464
sS'upload'
p465
(dp466
S'speed'
p467
S'115200'
p468
sS'maximum_size'
p469
S'28672'
p470
sS'protocol'
p471
S'stk500'
p472
ssaa(lp473
S'mini'
p474
a(dp475
S'bootloader'
p476
(dp477
S'extended_fuses'
p478
S'0x00'
p479
sS'high_fuses'
p480
S'0xdd'
p481
sS'low_fuses'
p482
S'0xff'
p483
sS'lock_bits'
p484
S'0x0F'
p485
sS'file'
p486
S'ATmegaBOOT_168_ng.hex'
p487
sS'path'
p488
S'atmega'
p489
sS'unlock_bits'
p490
S'0x3F'
p491
ssS'build'
p492
(dp493
S'core'
p494
S'arduino'
p495
sS'mcu'
p496
S'atmega168'
p497
sS'f_cpu'
p498
S'16000000L'
p499
sS'variant'
p500
S'eightanaloginputs'
p501
ssS'name'
p502
S'Arduino Mini w/ ATmega168'
p503
sS'upload'
p504
(dp505
S'speed'
p506
S'19200'
p507
sS'maximum_size'
p508
S'14336'
p509
sS'protocol'
p510
S'arduino'
p511
ssaa(lp512
S'ethernet'
p513
a(dp514
S'bootloader'
p515
(dp516
S'extended_fuses'
p517
S'0x05'
p518
sS'high_fuses'
p519
S'0xde'
p520
sS'low_fuses'
p521
S'0xff'
p522
sS'lock_bits'
p523
S'0x0F'
p524
sS'file'
p525
S'optiboot_atmega328.hex'
p526
sS'path'
p527
S'optiboot'
p528
sS'unlock_bits'
p529
S'0x3F'
p530
ssS'build'
p531
(dp532
S'f_cpu'
p533
S'16000000L'
p534
sS'mcu'
p535
S'atmega328p'
p536
sS'variant'
p537
S'standard'
p538
sS'core'
p539
S'arduino'
p540
ssS'name'
p541
S'Arduino Ethernet'
p542
sS'upload'
p543
(dp544
S'speed'
p545
S'115200'
p546
sS'maximum_size'
p547
S'32256'
p548
sS'protocol'
p549
S'arduino'
p550
ssaa(lp551
S'fio'
p552
a(dp553
S'bootloader'
p554
(dp555
S'extended_fuses'
p556
S'0x05'
p557
sS'high_fuses'
p558
S'0xDA'
p559
sS'low_fuses'
p560
S'0xFF'
p561
sS'lock_bits'
p562
S'0x0F'
p563
sS'file'
p564
S'ATmegaBOOT_168_atmega328_pro_8MHz.hex'
p565
sS'path'
p566
S'arduino:atmega'
p567
sS'unlock_bits'
p568
S'0x3F'
p569
ssS'build'
p570
(dp571
S'core'
p572
S'arduino'
p573
sS'mcu'
p574
S'atmega328p'
p575
sS'f_cpu'
p576
S'8000000L'
p577
sS'variant'
p578
S'eightanaloginputs'
p579
ssS'name'
p580
S'Arduino Fio'
p581
sS'upload'
p582
(dp583
S'speed'
p584
S'57600'
p585
sS'maximum_size'
p586
S'30720'
p587
sS'protocol'
p588
S'arduino'
p589
ssaa(lp590
S'bt328'
p591
a(dp592
S'bootloader'
p593
(dp594
S'extended_fuses'
p595
S'0x05'
p596
sS'high_fuses'
p597
S'0xd8'
p598
sS'low_fuses'
p599
S'0xff'
p600
sS'lock_bits'
p601
S'0x0F'
p602
sS'file'
p603
S'ATmegaBOOT_168_atmega328_bt.hex'
p604
sS'path'
p605
S'bt'
p606
sS'unlock_bits'
p607
S'0x3F'
p608
ssS'build'
p609
(dp610
S'core'
p611
S'arduino'
p612
sS'mcu'
p613
S'atmega328p'
p614
sS'f_cpu'
p615
S'16000000L'
p616
sS'variant'
p617
S'eightanaloginputs'
p618
ssS'name'
p619
S'Arduino BT w/ ATmega328'
p620
sS'upload'
p621
(dp622
S'speed'
p623
S'19200'
p624
sS'maximum_size'
p625
S'28672'
p626
sS'protocol'
p627
S'arduino'
p628
sS'disable_flushing'
p629
S'true'
p630
ssaa(lp631
S'bt'
p632
a(dp633
S'bootloader'
p634
(dp635
S'extended_fuses'
p636
S'0x00'
p637
sS'high_fuses'
p638
S'0xdd'
p639
sS'low_fuses'
p640
S'0xff'
p641
sS'lock_bits'
p642
S'0x0F'
p643
sS'file'
p644
S'ATmegaBOOT_168.hex'
p645
sS'path'
p646
S'bt'
p647
sS'unlock_bits'
p648
S'0x3F'
p649
ssS'build'
p650
(dp651
S'core'
p652
S'arduino'
p653
sS'mcu'
p654
S'atmega168'
p655
sS'f_cpu'
p656
S'16000000L'
p657
sS'variant'
p658
S'eightanaloginputs'
p659
ssS'name'
p660
S'Arduino BT w/ ATmega168'
p661
sS'upload'
p662
(dp663
S'speed'
p664
S'19200'
p665
sS'maximum_size'
p666
S'14336'
p667
sS'protocol'
p668
S'arduino'
p669
sS'disable_flushing'
p670
S'true'
p671
ssaa(lp672
S'lilypad328'
p673
a(dp674
S'bootloader'
p675
(dp676
S'extended_fuses'
p677
S'0x05'
p678
sS'high_fuses'
p679
S'0xDA'
p680
sS'low_fuses'
p681
S'0xFF'
p682
sS'lock_bits'
p683
S'0x0F'
p684
sS'file'
p685
S'ATmegaBOOT_168_atmega328_pro_8MHz.hex'
p686
sS'path'
p687
S'atmega'
p688
sS'unlock_bits'
p689
S'0x3F'
p690
ssS'build'
p691
(dp692
S'core'
p693
S'arduino'
p694
sS'mcu'
p695
S'atmega328p'
p696
sS'f_cpu'
p697
S'8000000L'
p698
sS'variant'
p699
S'standard'
p700
ssS'name'
p701
S'LilyPad Arduino w/ ATmega328'
p702
sS'upload'
p703
(dp704
S'speed'
p705
S'57600'
p706
sS'maximum_size'
p707
S'30720'
p708
sS'protocol'
p709
S'arduino'
p710
ssaa(lp711
S'lilypad'
p712
a(dp713
S'bootloader'
p714
(dp715
S'extended_fuses'
p716
S'0x00'
p717
sS'high_fuses'
p718
S'0xdd'
p719
sS'low_fuses'
p720
S'0xe2'
p721
sS'lock_bits'
p722
S'0x0F'
p723
sS'file'
p724
S'LilyPadBOOT_168.hex'
p725
sS'path'
p726
S'lilypad'
p727
sS'unlock_bits'
p728
S'0x3F'
p729
ssS'build'
p730
(dp731
S'core'
p732
S'arduino'
p733
sS'mcu'
p734
S'atmega168'
p735
sS'f_cpu'
p736
S'8000000L'
p737
sS'variant'
p738
S'standard'
p739
ssS'name'
p740
S'LilyPad Arduino w/ ATmega168'
p741
sS'upload'
p742
(dp743
S'speed'
p744
S'19200'
p745
sS'maximum_size'
p746
S'14336'
p747
sS'protocol'
p748
S'arduino'
p749
ssaa(lp750
S'pro5v328'
p751
a(dp752
S'bootloader'
p753
(dp754
S'extended_fuses'
p755
S'0x05'
p756
sS'high_fuses'
p757
S'0xDA'
p758
sS'low_fuses'
p759
S'0xFF'
p760
sS'lock_bits'
p761
S'0x0F'
p762
sS'file'
p763
S'ATmegaBOOT_168_atmega328.hex'
p764
sS'path'
p765
S'atmega'
p766
sS'unlock_bits'
p767
S'0x3F'
p768
ssS'build'
p769
(dp770
S'core'
p771
S'arduino'
p772
sS'mcu'
p773
S'atmega328p'
p774
sS'f_cpu'
p775
S'16000000L'
p776
sS'variant'
p777
S'standard'
p778
ssS'name'
p779
S'Arduino Pro or Pro Mini (5V, 16 MHz) w/ ATmega328'
p780
sS'upload'
p781
(dp782
S'speed'
p783
S'57600'
p784
sS'maximum_size'
p785
S'30720'
p786
sS'protocol'
p787
S'arduino'
p788
ssaa(lp789
S'pro5v'
p790
a(dp791
S'bootloader'
p792
(dp793
S'extended_fuses'
p794
S'0x00'
p795
sS'high_fuses'
p796
S'0xdd'
p797
sS'low_fuses'
p798
S'0xff'
p799
sS'lock_bits'
p800
S'0x0F'
p801
sS'file'
p802
S'ATmegaBOOT_168_diecimila.hex'
p803
sS'path'
p804
S'atmega'
p805
sS'unlock_bits'
p806
S'0x3F'
p807
ssS'build'
p808
(dp809
S'core'
p810
S'arduino'
p811
sS'mcu'
p812
S'atmega168'
p813
sS'f_cpu'
p814
S'16000000L'
p815
sS'variant'
p816
S'standard'
p817
ssS'name'
p818
S'Arduino Pro or Pro Mini (5V, 16 MHz) w/ ATmega168'
p819
sS'upload'
p820
(dp821
S'speed'
p822
S'19200'
p823
sS'maximum_size'
p824
S'14336'
p825
sS'protocol'
p826
S'arduino'
p827
ssaa(lp828
S'pro328'
p829
a(dp830
S'bootloader'
p831
(dp832
S'extended_fuses'
p833
S'0x05'
p834
sS'high_fuses'
p835
S'0xDA'
p836
sS'low_fuses'
p837
S'0xFF'
p838
sS'lock_bits'
p839
S'0x0F'
p840
sS'file'
p841
S'ATmegaBOOT_168_atmega328_pro_8MHz.hex'
p842
sS'path'
p843
S'atmega'
p844
sS'unlock_bits'
p845
S'0x3F'
p846
ssS'build'
p847
(dp848
S'core'
p849
S'arduino'
p850
sS'mcu'
p851
S'atmega328p'
p852
sS'f_cpu'
p853
S'8000000L'
p854
sS'variant'
p855
S'standard'
p856
ssS'name'
p857
S'Arduino Pro or Pro Mini (3.3V, 8 MHz) w/ ATmega328'
p858
sS'upload'
p859
(dp860
S'speed'
p861
S'57600'
p862
sS'maximum_size'
p863
S'30720'
p864
sS'protocol'
p865
S'arduino'
p866
ssaa(lp867
S'pro'
p868
a(dp869
S'bootloader'
p870
(dp871
S'extended_fuses'
p872
S'0x00'
p873
sS'high_fuses'
p874
S'0xdd'
p875
sS'low_fuses'
p876
S'0xc6'
p877
sS'lock_bits'
p878
S'0x0F'
p879
sS'file'
p880
S'ATmegaBOOT_168_pro_8MHz.hex'
p881
sS'path'
p882
S'atmega'
p883
sS'unlock_bits'
p884
S'0x3F'
p885
ssS'build'
p886
(dp887
S'core'
p888
S'arduino'
p889
sS'mcu'
p890
S'atmega168'
p891
sS'f_cpu'
p892
S'8000000L'
p893
sS'variant'
p894
S'standard'
p895
ssS'name'
p896
S'Arduino Pro or Pro Mini (3.3V, 8 MHz) w/ ATmega168'
p897
sS'upload'
p898
(dp899
S'speed'
p900
S'19200'
p901
sS'maximum_size'
p902
S'14336'
p903
sS'protocol'
p904
S'arduino'
p905
ssaa(lp906
S'atmega168'
p907
a(dp908
S'bootloader'
p909
(dp910
S'extended_fuses'
p911
S'0x00'
p912
sS'high_fuses'
p913
S'0xdd'
p914
sS'low_fuses'
p915
S'0xff'
p916
sS'lock_bits'
p917
S'0x0F'
p918
sS'file'
p919
S'ATmegaBOOT_168_ng.hex'
p920
sS'path'
p921
S'atmega'
p922
sS'unlock_bits'
p923
S'0x3F'
p924
ssS'build'
p925
(dp926
S'core'
p927
S'arduino'
p928
sS'mcu'
p929
S'atmega168'
p930
sS'f_cpu'
p931
S'16000000L'
p932
sS'variant'
p933
S'standard'
p934
ssS'name'
p935
S'Arduino NG or older w/ ATmega168'
p936
sS'upload'
p937
(dp938
S'speed'
p939
S'19200'
p940
sS'maximum_size'
p941
S'14336'
p942
sS'protocol'
p943
S'arduino'
p944
ssaa(lp945
S'atmega8'
p946
a(dp947
S'bootloader'
p948
(dp949
S'high_fuses'
p950
S'0xca'
p951
sS'low_fuses'
p952
S'0xdf'
p953
sS'lock_bits'
p954
S'0x0F'
p955
sS'file'
p956
S'ATmegaBOOT.hex'
p957
sS'path'
p958
S'atmega8'
p959
sS'unlock_bits'
p960
S'0x3F'
p961
ssS'build'
p962
(dp963
S'core'
p964
S'arduino'
p965
sS'mcu'
p966
S'atmega8'
p967
sS'f_cpu'
p968
S'16000000L'
p969
sS'variant'
p970
S'standard'
p971
ssS'name'
p972
S'Arduino NG or older w/ ATmega8'
p973
sS'upload'
p974
(dp975
S'speed'
p976
S'19200'
p977
sS'maximum_size'
p978
S'7168'
p979
sS'protocol'
p980
S'arduino'
p981
ssaatp982
Rp983
(dp984
S'default'
p985
S'uno'
p986
sbtp987
a(S'deps'
p988
g32
(g33
g34
(lp989
S'.build/alamode/src/dependencies.d'
p990
aS'.build/alamode/arduino/dependencies.d'
p991
aS'.build/alamode/TinyGPS/dependencies.d'
p992
aS'.build/alamode/LSM303/dependencies.d'
p993
aS'.build/alamode/Wire/dependencies.d'
p994
aS'.build/alamode/SoftwareSerial/dependencies.d'
p995
aS'.build/alamode/Servo/dependencies.d'
p996
aS'.build/alamode/ros_lib/dependencies.d'
p997
atp998
Rp999
tp1000
a(S'build_dir'
p1001
S'.build/alamode'
p1002
tp1003
a.